

Microchip Technology PIC18 LITE Macro Assembler V1.12 build 49521 
                                                                                               Tue Jan 28 02:11:24 2014

HI-TECH Software Omniscient Code Generator (Lite mode) build 49521
     1  0000                     opt subtitle "HI-TECH Software Omniscient Code Generator (Lite mode) build 49521"
     2                           opt subtitle "HI-TECH Software Omniscient Code Generator (Lite mode) build 49521"
     3                           
     4                           opt pagewidth 120
     5                           
     6                           	opt lm
     7                           
     8  0000                     porta	equ	0F80h
     9  0000                     portb	equ	0F81h
    10  0000                     portc	equ	0F82h
    11  0000                     portd	equ	0F83h
    12  0000                     porte	equ	0F84h
    13  0000                     lata	equ	0F89h
    14  0000                     latb	equ	0F8Ah
    15  0000                     latc	equ	0F8Bh
    16  0000                     latd	equ	0F8Ch
    17  0000                     late	equ	0F8Dh
    18  0000                     trisa	equ	0F92h
    19  0000                     trisb	equ	0F93h
    20  0000                     trisc	equ	0F94h
    21  0000                     trisd	equ	0F95h
    22  0000                     trise	equ	0F96h
    23  0000                     pie1	equ	0F9Dh
    24  0000                     pir1	equ	0F9Eh
    25  0000                     ipr1	equ	0F9Fh
    26  0000                     pie2	equ	0FA0h
    27  0000                     pir2	equ	0FA1h
    28  0000                     ipr2	equ	0FA2h
    29  0000                     t3con	equ	0FB1h
    30  0000                     tmr3l	equ	0FB2h
    31  0000                     tmr3h	equ	0FB3h
    32  0000                     ccp1con	equ	0FBDh
    33  0000                     ccpr1l	equ	0FBEh
    34  0000                     ccpr1h	equ	0FBFh
    35  0000                     adcon1	equ	0FC1h
    36  0000                     adcon0	equ	0FC2h
    37  0000                     adresl	equ	0FC3h
    38  0000                     adresh	equ	0FC4h
    39  0000                     sspcon2	equ	0FC5h
    40  0000                     sspcon1	equ	0FC6h
    41  0000                     sspstat	equ	0FC7h
    42  0000                     sspadd	equ	0FC8h
    43  0000                     sspbuf	equ	0FC9h
    44  0000                     t2con	equ	0FCAh
    45  0000                     pr2	equ	0FCBh
    46  0000                     tmr2	equ	0FCCh
    47  0000                     t1con	equ	0FCDh
    48  0000                     tmr1l	equ	0FCEh
    49  0000                     tmr1h	equ	0FCFh
    50  0000                     rcon	equ	0FD0h
    51  0000                     wdtcon	equ	0FD1h
    52  0000                     lvdcon	equ	0FD2h
    53  0000                     osccon	equ	0FD3h
    54  0000                     t0con	equ	0FD5h
    55  0000                     tmr0l	equ	0FD6h
    56  0000                     tmr0h	equ	0FD7h
    57  0000                     status	equ	0FD8h
    58  0000                     fsr2	equ	0FD9h
    59  0000                     fsr2l	equ	0FD9h
    60  0000                     fsr2h	equ	0FDAh
    61  0000                     plusw2	equ	0FDBh
    62  0000                     preinc2	equ	0FDCh
    63  0000                     postdec2	equ	0FDDh
    64  0000                     postinc2	equ	0FDEh
    65  0000                     indf2	equ	0FDFh
    66  0000                     bsr	equ	0FE0h
    67  0000                     fsr1	equ	0FE1h
    68  0000                     fsr1l	equ	0FE1h
    69  0000                     fsr1h	equ	0FE2h
    70  0000                     plusw1	equ	0FE3h
    71  0000                     preinc1	equ	0FE4h
    72  0000                     postdec1	equ	0FE5h
    73  0000                     postinc1	equ	0FE6h
    74  0000                     indf1	equ	0FE7h
    75  0000                     wreg	equ	0FE8h
    76  0000                     fsr0	equ	0FE9h
    77  0000                     fsr0l	equ	0FE9h
    78  0000                     fsr0h	equ	0FEAh
    79  0000                     plusw0	equ	0FEBh
    80  0000                     preinc0	equ	0FECh
    81  0000                     postdec0	equ	0FEDh
    82  0000                     postinc0	equ	0FEEh
    83  0000                     indf0	equ	0FEFh
    84  0000                     intcon3	equ	0FF0h
    85  0000                     intcon2	equ	0FF1h
    86  0000                     intcon	equ	0FF2h
    87  0000                     prod	equ	0FF3h
    88  0000                     prodl	equ	0FF3h
    89  0000                     prodh	equ	0FF4h
    90  0000                     tablat	equ	0FF5h
    91  0000                     tblptr	equ	0FF6h
    92  0000                     tblptrl	equ	0FF6h
    93  0000                     tblptrh	equ	0FF7h
    94  0000                     tblptru	equ	0FF8h
    95  0000                     pcl	equ	0FF9h
    96  0000                     pclat	equ	0FFAh
    97  0000                     pclath	equ	0FFAh
    98  0000                     pclatu	equ	0FFBh
    99  0000                     stkptr	equ	0FFCh
   100  0000                     tosl	equ	0FFDh
   101  0000                     tosh	equ	0FFEh
   102  0000                     tosu	equ	0FFFh
   103                           opt subtitle "HI-TECH Software Omniscient Code Generator (Lite mode) build 49521"
   104                           
   105  0000                     	endm
   106                           opt subtitle "HI-TECH Software Omniscient Code Generator (Lite mode) build 49521"
   107                           
   108                           opt pagewidth 120
   109  0000                     SRCON0 equ 0F68h ;# 
   110                           opt subtitle "HI-TECH Software Omniscient Code Generator (Lite mode) build 49521"
   111  0000                     SRCON1 equ 0F69h ;# 
   112                           opt subtitle "HI-TECH Software Omniscient Code Generator (Lite mode) build 49521"
   113  0000                     CM2CON0 equ 0F6Bh ;# 
   114                           opt subtitle "HI-TECH Software Omniscient Code Generator (Lite mode) build 49521"
   115  0000                     CM2CON1 equ 0F6Ch ;# 
   116                           opt subtitle "HI-TECH Software Omniscient Code Generator (Lite mode) build 49521"
   117  0000                     CM1CON0 equ 0F6Dh ;# 
   118                           opt subtitle "HI-TECH Software Omniscient Code Generator (Lite mode) build 49521"
   119  0000                     SSPMSK equ 0F6Fh ;# 
   120                           opt subtitle "HI-TECH Software Omniscient Code Generator (Lite mode) build 49521"
   121  0000                     SSPMASK equ 0F6Fh ;# 
   122                           opt subtitle "HI-TECH Software Omniscient Code Generator (Lite mode) build 49521"
   123  0000                     SLRCON equ 0F76h ;# 
   124                           opt subtitle "HI-TECH Software Omniscient Code Generator (Lite mode) build 49521"
   125  0000                     WPUA equ 0F77h ;# 
   126                           opt subtitle "HI-TECH Software Omniscient Code Generator (Lite mode) build 49521"
   127  0000                     WPUB equ 0F78h ;# 
   128                           opt subtitle "HI-TECH Software Omniscient Code Generator (Lite mode) build 49521"
   129  0000                     IOCA equ 0F79h ;# 
   130                           opt subtitle "HI-TECH Software Omniscient Code Generator (Lite mode) build 49521"
   131  0000                     IOCB equ 0F7Ah ;# 
   132                           opt subtitle "HI-TECH Software Omniscient Code Generator (Lite mode) build 49521"
   133  0000                     ANSEL equ 0F7Eh ;# 
   134                           opt subtitle "HI-TECH Software Omniscient Code Generator (Lite mode) build 49521"
   135  0000                     ANSELH equ 0F7Fh ;# 
   136                           opt subtitle "HI-TECH Software Omniscient Code Generator (Lite mode) build 49521"
   137  0000                     PORTA equ 0F80h ;# 
   138                           opt subtitle "HI-TECH Software Omniscient Code Generator (Lite mode) build 49521"
   139  0000                     PORTB equ 0F81h ;# 
   140                           opt subtitle "HI-TECH Software Omniscient Code Generator (Lite mode) build 49521"
   141  0000                     PORTC equ 0F82h ;# 
   142                           opt subtitle "HI-TECH Software Omniscient Code Generator (Lite mode) build 49521"
   143  0000                     LATA equ 0F89h ;# 
   144                           opt subtitle "HI-TECH Software Omniscient Code Generator (Lite mode) build 49521"
   145  0000                     LATB equ 0F8Ah ;# 
   146                           opt subtitle "HI-TECH Software Omniscient Code Generator (Lite mode) build 49521"
   147  0000                     LATC equ 0F8Bh ;# 
   148                           opt subtitle "HI-TECH Software Omniscient Code Generator (Lite mode) build 49521"
   149  0000                     TRISA equ 0F92h ;# 
   150                           opt subtitle "HI-TECH Software Omniscient Code Generator (Lite mode) build 49521"
   151  0000                     DDRA equ 0F92h ;# 
   152                           opt subtitle "HI-TECH Software Omniscient Code Generator (Lite mode) build 49521"
   153  0000                     TRISB equ 0F93h ;# 
   154                           opt subtitle "HI-TECH Software Omniscient Code Generator (Lite mode) build 49521"
   155  0000                     DDRB equ 0F93h ;# 
   156                           opt subtitle "HI-TECH Software Omniscient Code Generator (Lite mode) build 49521"
   157  0000                     TRISC equ 0F94h ;# 
   158                           opt subtitle "HI-TECH Software Omniscient Code Generator (Lite mode) build 49521"
   159  0000                     DDRC equ 0F94h ;# 
   160                           opt subtitle "HI-TECH Software Omniscient Code Generator (Lite mode) build 49521"
   161  0000                     OSCTUNE equ 0F9Bh ;# 
   162                           opt subtitle "HI-TECH Software Omniscient Code Generator (Lite mode) build 49521"
   163  0000                     PIE1 equ 0F9Dh ;# 
   164                           opt subtitle "HI-TECH Software Omniscient Code Generator (Lite mode) build 49521"
   165  0000                     PIR1 equ 0F9Eh ;# 
   166                           opt subtitle "HI-TECH Software Omniscient Code Generator (Lite mode) build 49521"
   167  0000                     IPR1 equ 0F9Fh ;# 
   168                           opt subtitle "HI-TECH Software Omniscient Code Generator (Lite mode) build 49521"
   169  0000                     PIE2 equ 0FA0h ;# 
   170                           opt subtitle "HI-TECH Software Omniscient Code Generator (Lite mode) build 49521"
   171  0000                     PIR2 equ 0FA1h ;# 
   172                           opt subtitle "HI-TECH Software Omniscient Code Generator (Lite mode) build 49521"
   173  0000                     IPR2 equ 0FA2h ;# 
   174                           opt subtitle "HI-TECH Software Omniscient Code Generator (Lite mode) build 49521"
   175  0000                     EECON1 equ 0FA6h ;# 
   176                           opt subtitle "HI-TECH Software Omniscient Code Generator (Lite mode) build 49521"
   177  0000                     EECON2 equ 0FA7h ;# 
   178                           opt subtitle "HI-TECH Software Omniscient Code Generator (Lite mode) build 49521"
   179  0000                     EEDATA equ 0FA8h ;# 
   180                           opt subtitle "HI-TECH Software Omniscient Code Generator (Lite mode) build 49521"
   181  0000                     EEADR equ 0FA9h ;# 
   182                           opt subtitle "HI-TECH Software Omniscient Code Generator (Lite mode) build 49521"
   183  0000                     RCSTA equ 0FABh ;# 
   184                           opt subtitle "HI-TECH Software Omniscient Code Generator (Lite mode) build 49521"
   185  0000                     RCSTA1 equ 0FABh ;# 
   186                           opt subtitle "HI-TECH Software Omniscient Code Generator (Lite mode) build 49521"
   187  0000                     TXSTA equ 0FACh ;# 
   188                           opt subtitle "HI-TECH Software Omniscient Code Generator (Lite mode) build 49521"
   189  0000                     TXSTA1 equ 0FACh ;# 
   190                           opt subtitle "HI-TECH Software Omniscient Code Generator (Lite mode) build 49521"
   191  0000                     TXREG equ 0FADh ;# 
   192                           opt subtitle "HI-TECH Software Omniscient Code Generator (Lite mode) build 49521"
   193  0000                     TXREG1 equ 0FADh ;# 
   194                           opt subtitle "HI-TECH Software Omniscient Code Generator (Lite mode) build 49521"
   195  0000                     RCREG equ 0FAEh ;# 
   196                           opt subtitle "HI-TECH Software Omniscient Code Generator (Lite mode) build 49521"
   197  0000                     RCREG1 equ 0FAEh ;# 
   198                           opt subtitle "HI-TECH Software Omniscient Code Generator (Lite mode) build 49521"
   199  0000                     SPBRG equ 0FAFh ;# 
   200                           opt subtitle "HI-TECH Software Omniscient Code Generator (Lite mode) build 49521"
   201  0000                     SPBRG1 equ 0FAFh ;# 
   202                           opt subtitle "HI-TECH Software Omniscient Code Generator (Lite mode) build 49521"
   203  0000                     SPBRGH equ 0FB0h ;# 
   204                           opt subtitle "HI-TECH Software Omniscient Code Generator (Lite mode) build 49521"
   205  0000                     T3CON equ 0FB1h ;# 
   206                           opt subtitle "HI-TECH Software Omniscient Code Generator (Lite mode) build 49521"
   207  0000                     TMR3 equ 0FB2h ;# 
   208                           opt subtitle "HI-TECH Software Omniscient Code Generator (Lite mode) build 49521"
   209  0000                     TMR3L equ 0FB2h ;# 
   210                           opt subtitle "HI-TECH Software Omniscient Code Generator (Lite mode) build 49521"
   211  0000                     TMR3H equ 0FB3h ;# 
   212                           opt subtitle "HI-TECH Software Omniscient Code Generator (Lite mode) build 49521"
   213  0000                     ECCP1AS equ 0FB6h ;# 
   214                           opt subtitle "HI-TECH Software Omniscient Code Generator (Lite mode) build 49521"
   215  0000                     PWM1CON equ 0FB7h ;# 
   216                           opt subtitle "HI-TECH Software Omniscient Code Generator (Lite mode) build 49521"
   217  0000                     BAUDCON equ 0FB8h ;# 
   218                           opt subtitle "HI-TECH Software Omniscient Code Generator (Lite mode) build 49521"
   219  0000                     BAUDCTL equ 0FB8h ;# 
   220                           opt subtitle "HI-TECH Software Omniscient Code Generator (Lite mode) build 49521"
   221  0000                     PSTRCON equ 0FB9h ;# 
   222                           opt subtitle "HI-TECH Software Omniscient Code Generator (Lite mode) build 49521"
   223  0000                     VREFCON0 equ 0FBAh ;# 
   224                           opt subtitle "HI-TECH Software Omniscient Code Generator (Lite mode) build 49521"
   225  0000                     REFCON0 equ 0FBAh ;# 
   226                           opt subtitle "HI-TECH Software Omniscient Code Generator (Lite mode) build 49521"
   227  0000                     VREFCON1 equ 0FBBh ;# 
   228                           opt subtitle "HI-TECH Software Omniscient Code Generator (Lite mode) build 49521"
   229  0000                     REFCON1 equ 0FBBh ;# 
   230                           opt subtitle "HI-TECH Software Omniscient Code Generator (Lite mode) build 49521"
   231  0000                     VREFCON2 equ 0FBCh ;# 
   232                           opt subtitle "HI-TECH Software Omniscient Code Generator (Lite mode) build 49521"
   233  0000                     REFCON2 equ 0FBCh ;# 
   234                           opt subtitle "HI-TECH Software Omniscient Code Generator (Lite mode) build 49521"
   235  0000                     CCP1CON equ 0FBDh ;# 
   236                           opt subtitle "HI-TECH Software Omniscient Code Generator (Lite mode) build 49521"
   237  0000                     CCPR1 equ 0FBEh ;# 
   238                           opt subtitle "HI-TECH Software Omniscient Code Generator (Lite mode) build 49521"
   239  0000                     CCPR1L equ 0FBEh ;# 
   240                           opt subtitle "HI-TECH Software Omniscient Code Generator (Lite mode) build 49521"
   241  0000                     CCPR1H equ 0FBFh ;# 
   242                           opt subtitle "HI-TECH Software Omniscient Code Generator (Lite mode) build 49521"
   243  0000                     ADCON2 equ 0FC0h ;# 
   244                           opt subtitle "HI-TECH Software Omniscient Code Generator (Lite mode) build 49521"
   245  0000                     ADCON1 equ 0FC1h ;# 
   246                           opt subtitle "HI-TECH Software Omniscient Code Generator (Lite mode) build 49521"
   247  0000                     ADCON0 equ 0FC2h ;# 
   248                           opt subtitle "HI-TECH Software Omniscient Code Generator (Lite mode) build 49521"
   249  0000                     ADRES equ 0FC3h ;# 
   250                           opt subtitle "HI-TECH Software Omniscient Code Generator (Lite mode) build 49521"
   251  0000                     ADRESL equ 0FC3h ;# 
   252                           opt subtitle "HI-TECH Software Omniscient Code Generator (Lite mode) build 49521"
   253  0000                     ADRESH equ 0FC4h ;# 
   254                           opt subtitle "HI-TECH Software Omniscient Code Generator (Lite mode) build 49521"
   255  0000                     SSPCON2 equ 0FC5h ;# 
   256                           opt subtitle "HI-TECH Software Omniscient Code Generator (Lite mode) build 49521"
   257  0000                     SSPCON1 equ 0FC6h ;# 
   258                           opt subtitle "HI-TECH Software Omniscient Code Generator (Lite mode) build 49521"
   259  0000                     SSPSTAT equ 0FC7h ;# 
   260                           opt subtitle "HI-TECH Software Omniscient Code Generator (Lite mode) build 49521"
   261  0000                     SSPADD equ 0FC8h ;# 
   262                           opt subtitle "HI-TECH Software Omniscient Code Generator (Lite mode) build 49521"
   263  0000                     SSPBUF equ 0FC9h ;# 
   264                           opt subtitle "HI-TECH Software Omniscient Code Generator (Lite mode) build 49521"
   265  0000                     T2CON equ 0FCAh ;# 
   266                           opt subtitle "HI-TECH Software Omniscient Code Generator (Lite mode) build 49521"
   267  0000                     PR2 equ 0FCBh ;# 
   268                           opt subtitle "HI-TECH Software Omniscient Code Generator (Lite mode) build 49521"
   269  0000                     MEMCON equ 0FCBh ;# 
   270                           opt subtitle "HI-TECH Software Omniscient Code Generator (Lite mode) build 49521"
   271  0000                     TMR2 equ 0FCCh ;# 
   272                           opt subtitle "HI-TECH Software Omniscient Code Generator (Lite mode) build 49521"
   273  0000                     T1CON equ 0FCDh ;# 
   274                           opt subtitle "HI-TECH Software Omniscient Code Generator (Lite mode) build 49521"
   275  0000                     TMR1 equ 0FCEh ;# 
   276                           opt subtitle "HI-TECH Software Omniscient Code Generator (Lite mode) build 49521"
   277  0000                     TMR1L equ 0FCEh ;# 
   278                           opt subtitle "HI-TECH Software Omniscient Code Generator (Lite mode) build 49521"
   279  0000                     TMR1H equ 0FCFh ;# 
   280                           opt subtitle "HI-TECH Software Omniscient Code Generator (Lite mode) build 49521"
   281  0000                     RCON equ 0FD0h ;# 
   282                           opt subtitle "HI-TECH Software Omniscient Code Generator (Lite mode) build 49521"
   283  0000                     WDTCON equ 0FD1h ;# 
   284                           opt subtitle "HI-TECH Software Omniscient Code Generator (Lite mode) build 49521"
   285  0000                     OSCCON2 equ 0FD2h ;# 
   286                           opt subtitle "HI-TECH Software Omniscient Code Generator (Lite mode) build 49521"
   287  0000                     OSCCON equ 0FD3h ;# 
   288                           opt subtitle "HI-TECH Software Omniscient Code Generator (Lite mode) build 49521"
   289  0000                     T0CON equ 0FD5h ;# 
   290                           opt subtitle "HI-TECH Software Omniscient Code Generator (Lite mode) build 49521"
   291  0000                     TMR0 equ 0FD6h ;# 
   292                           opt subtitle "HI-TECH Software Omniscient Code Generator (Lite mode) build 49521"
   293  0000                     TMR0L equ 0FD6h ;# 
   294                           opt subtitle "HI-TECH Software Omniscient Code Generator (Lite mode) build 49521"
   295  0000                     TMR0H equ 0FD7h ;# 
   296                           opt subtitle "HI-TECH Software Omniscient Code Generator (Lite mode) build 49521"
   297  0000                     STATUS equ 0FD8h ;# 
   298                           opt subtitle "HI-TECH Software Omniscient Code Generator (Lite mode) build 49521"
   299  0000                     FSR2 equ 0FD9h ;# 
   300                           opt subtitle "HI-TECH Software Omniscient Code Generator (Lite mode) build 49521"
   301  0000                     FSR2L equ 0FD9h ;# 
   302                           opt subtitle "HI-TECH Software Omniscient Code Generator (Lite mode) build 49521"
   303  0000                     FSR2H equ 0FDAh ;# 
   304                           opt subtitle "HI-TECH Software Omniscient Code Generator (Lite mode) build 49521"
   305  0000                     PLUSW2 equ 0FDBh ;# 
   306                           opt subtitle "HI-TECH Software Omniscient Code Generator (Lite mode) build 49521"
   307  0000                     PREINC2 equ 0FDCh ;# 
   308                           opt subtitle "HI-TECH Software Omniscient Code Generator (Lite mode) build 49521"
   309  0000                     POSTDEC2 equ 0FDDh ;# 
   310                           opt subtitle "HI-TECH Software Omniscient Code Generator (Lite mode) build 49521"
   311  0000                     POSTINC2 equ 0FDEh ;# 
   312                           opt subtitle "HI-TECH Software Omniscient Code Generator (Lite mode) build 49521"
   313  0000                     INDF2 equ 0FDFh ;# 
   314                           opt subtitle "HI-TECH Software Omniscient Code Generator (Lite mode) build 49521"
   315  0000                     BSR equ 0FE0h ;# 
   316                           opt subtitle "HI-TECH Software Omniscient Code Generator (Lite mode) build 49521"
   317  0000                     FSR1 equ 0FE1h ;# 
   318                           opt subtitle "HI-TECH Software Omniscient Code Generator (Lite mode) build 49521"
   319  0000                     FSR1L equ 0FE1h ;# 
   320                           opt subtitle "HI-TECH Software Omniscient Code Generator (Lite mode) build 49521"
   321  0000                     FSR1H equ 0FE2h ;# 
   322                           opt subtitle "HI-TECH Software Omniscient Code Generator (Lite mode) build 49521"
   323  0000                     PLUSW1 equ 0FE3h ;# 
   324                           opt subtitle "HI-TECH Software Omniscient Code Generator (Lite mode) build 49521"
   325  0000                     PREINC1 equ 0FE4h ;# 
   326                           opt subtitle "HI-TECH Software Omniscient Code Generator (Lite mode) build 49521"
   327  0000                     POSTDEC1 equ 0FE5h ;# 
   328                           opt subtitle "HI-TECH Software Omniscient Code Generator (Lite mode) build 49521"
   329  0000                     POSTINC1 equ 0FE6h ;# 
   330                           opt subtitle "HI-TECH Software Omniscient Code Generator (Lite mode) build 49521"
   331  0000                     INDF1 equ 0FE7h ;# 
   332                           opt subtitle "HI-TECH Software Omniscient Code Generator (Lite mode) build 49521"
   333  0000                     WREG equ 0FE8h ;# 
   334                           opt subtitle "HI-TECH Software Omniscient Code Generator (Lite mode) build 49521"
   335  0000                     FSR0 equ 0FE9h ;# 
   336                           opt subtitle "HI-TECH Software Omniscient Code Generator (Lite mode) build 49521"
   337  0000                     FSR0L equ 0FE9h ;# 
   338                           opt subtitle "HI-TECH Software Omniscient Code Generator (Lite mode) build 49521"
   339  0000                     FSR0H equ 0FEAh ;# 
   340                           opt subtitle "HI-TECH Software Omniscient Code Generator (Lite mode) build 49521"
   341  0000                     PLUSW0 equ 0FEBh ;# 
   342                           opt subtitle "HI-TECH Software Omniscient Code Generator (Lite mode) build 49521"
   343  0000                     PREINC0 equ 0FECh ;# 
   344                           opt subtitle "HI-TECH Software Omniscient Code Generator (Lite mode) build 49521"
   345  0000                     POSTDEC0 equ 0FEDh ;# 
   346                           opt subtitle "HI-TECH Software Omniscient Code Generator (Lite mode) build 49521"
   347  0000                     POSTINC0 equ 0FEEh ;# 
   348                           opt subtitle "HI-TECH Software Omniscient Code Generator (Lite mode) build 49521"
   349  0000                     INDF0 equ 0FEFh ;# 
   350                           opt subtitle "HI-TECH Software Omniscient Code Generator (Lite mode) build 49521"
   351  0000                     INTCON3 equ 0FF0h ;# 
   352                           opt subtitle "HI-TECH Software Omniscient Code Generator (Lite mode) build 49521"
   353  0000                     INTCON2 equ 0FF1h ;# 
   354                           opt subtitle "HI-TECH Software Omniscient Code Generator (Lite mode) build 49521"
   355  0000                     INTCON equ 0FF2h ;# 
   356                           opt subtitle "HI-TECH Software Omniscient Code Generator (Lite mode) build 49521"
   357  0000                     PROD equ 0FF3h ;# 
   358                           opt subtitle "HI-TECH Software Omniscient Code Generator (Lite mode) build 49521"
   359  0000                     PRODL equ 0FF3h ;# 
   360                           opt subtitle "HI-TECH Software Omniscient Code Generator (Lite mode) build 49521"
   361  0000                     PRODH equ 0FF4h ;# 
   362                           opt subtitle "HI-TECH Software Omniscient Code Generator (Lite mode) build 49521"
   363  0000                     TABLAT equ 0FF5h ;# 
   364                           opt subtitle "HI-TECH Software Omniscient Code Generator (Lite mode) build 49521"
   365  0000                     TBLPTR equ 0FF6h ;# 
   366                           opt subtitle "HI-TECH Software Omniscient Code Generator (Lite mode) build 49521"
   367  0000                     TBLPTRL equ 0FF6h ;# 
   368                           opt subtitle "HI-TECH Software Omniscient Code Generator (Lite mode) build 49521"
   369  0000                     TBLPTRH equ 0FF7h ;# 
   370                           opt subtitle "HI-TECH Software Omniscient Code Generator (Lite mode) build 49521"
   371  0000                     TBLPTRU equ 0FF8h ;# 
   372                           opt subtitle "HI-TECH Software Omniscient Code Generator (Lite mode) build 49521"
   373  0000                     PCLAT equ 0FF9h ;# 
   374                           opt subtitle "HI-TECH Software Omniscient Code Generator (Lite mode) build 49521"
   375  0000                     PC equ 0FF9h ;# 
   376                           opt subtitle "HI-TECH Software Omniscient Code Generator (Lite mode) build 49521"
   377  0000                     PCL equ 0FF9h ;# 
   378                           opt subtitle "HI-TECH Software Omniscient Code Generator (Lite mode) build 49521"
   379  0000                     PCLATH equ 0FFAh ;# 
   380                           opt subtitle "HI-TECH Software Omniscient Code Generator (Lite mode) build 49521"
   381  0000                     PCLATU equ 0FFBh ;# 
   382                           opt subtitle "HI-TECH Software Omniscient Code Generator (Lite mode) build 49521"
   383  0000                     STKPTR equ 0FFCh ;# 
   384                           opt subtitle "HI-TECH Software Omniscient Code Generator (Lite mode) build 49521"
   385  0000                     TOS equ 0FFDh ;# 
   386                           opt subtitle "HI-TECH Software Omniscient Code Generator (Lite mode) build 49521"
   387  0000                     TOSL equ 0FFDh ;# 
   388                           opt subtitle "HI-TECH Software Omniscient Code Generator (Lite mode) build 49521"
   389  0000                     TOSH equ 0FFEh ;# 
   390                           opt subtitle "HI-TECH Software Omniscient Code Generator (Lite mode) build 49521"
   391  0000                     TOSU equ 0FFFh ;# 
   392                           opt subtitle "HI-TECH Software Omniscient Code Generator (Lite mode) build 49521"
   393  0000                     SRCON0 equ 0F68h ;# 
   394                           opt subtitle "HI-TECH Software Omniscient Code Generator (Lite mode) build 49521"
   395  0000                     SRCON1 equ 0F69h ;# 
   396                           opt subtitle "HI-TECH Software Omniscient Code Generator (Lite mode) build 49521"
   397  0000                     CM2CON0 equ 0F6Bh ;# 
   398                           opt subtitle "HI-TECH Software Omniscient Code Generator (Lite mode) build 49521"
   399  0000                     CM2CON1 equ 0F6Ch ;# 
   400                           opt subtitle "HI-TECH Software Omniscient Code Generator (Lite mode) build 49521"
   401  0000                     CM1CON0 equ 0F6Dh ;# 
   402                           opt subtitle "HI-TECH Software Omniscient Code Generator (Lite mode) build 49521"
   403  0000                     SSPMSK equ 0F6Fh ;# 
   404                           opt subtitle "HI-TECH Software Omniscient Code Generator (Lite mode) build 49521"
   405  0000                     SSPMASK equ 0F6Fh ;# 
   406                           opt subtitle "HI-TECH Software Omniscient Code Generator (Lite mode) build 49521"
   407  0000                     SLRCON equ 0F76h ;# 
   408                           opt subtitle "HI-TECH Software Omniscient Code Generator (Lite mode) build 49521"
   409  0000                     WPUA equ 0F77h ;# 
   410                           opt subtitle "HI-TECH Software Omniscient Code Generator (Lite mode) build 49521"
   411  0000                     WPUB equ 0F78h ;# 
   412                           opt subtitle "HI-TECH Software Omniscient Code Generator (Lite mode) build 49521"
   413  0000                     IOCA equ 0F79h ;# 
   414                           opt subtitle "HI-TECH Software Omniscient Code Generator (Lite mode) build 49521"
   415  0000                     IOCB equ 0F7Ah ;# 
   416                           opt subtitle "HI-TECH Software Omniscient Code Generator (Lite mode) build 49521"
   417  0000                     ANSEL equ 0F7Eh ;# 
   418                           opt subtitle "HI-TECH Software Omniscient Code Generator (Lite mode) build 49521"
   419  0000                     ANSELH equ 0F7Fh ;# 
   420                           opt subtitle "HI-TECH Software Omniscient Code Generator (Lite mode) build 49521"
   421  0000                     PORTA equ 0F80h ;# 
   422                           opt subtitle "HI-TECH Software Omniscient Code Generator (Lite mode) build 49521"
   423  0000                     PORTB equ 0F81h ;# 
   424                           opt subtitle "HI-TECH Software Omniscient Code Generator (Lite mode) build 49521"
   425  0000                     PORTC equ 0F82h ;# 
   426                           opt subtitle "HI-TECH Software Omniscient Code Generator (Lite mode) build 49521"
   427  0000                     LATA equ 0F89h ;# 
   428                           opt subtitle "HI-TECH Software Omniscient Code Generator (Lite mode) build 49521"
   429  0000                     LATB equ 0F8Ah ;# 
   430                           opt subtitle "HI-TECH Software Omniscient Code Generator (Lite mode) build 49521"
   431  0000                     LATC equ 0F8Bh ;# 
   432                           opt subtitle "HI-TECH Software Omniscient Code Generator (Lite mode) build 49521"
   433  0000                     TRISA equ 0F92h ;# 
   434                           opt subtitle "HI-TECH Software Omniscient Code Generator (Lite mode) build 49521"
   435  0000                     DDRA equ 0F92h ;# 
   436                           opt subtitle "HI-TECH Software Omniscient Code Generator (Lite mode) build 49521"
   437  0000                     TRISB equ 0F93h ;# 
   438                           opt subtitle "HI-TECH Software Omniscient Code Generator (Lite mode) build 49521"
   439  0000                     DDRB equ 0F93h ;# 
   440                           opt subtitle "HI-TECH Software Omniscient Code Generator (Lite mode) build 49521"
   441  0000                     TRISC equ 0F94h ;# 
   442                           opt subtitle "HI-TECH Software Omniscient Code Generator (Lite mode) build 49521"
   443  0000                     DDRC equ 0F94h ;# 
   444                           opt subtitle "HI-TECH Software Omniscient Code Generator (Lite mode) build 49521"
   445  0000                     OSCTUNE equ 0F9Bh ;# 
   446                           opt subtitle "HI-TECH Software Omniscient Code Generator (Lite mode) build 49521"
   447  0000                     PIE1 equ 0F9Dh ;# 
   448                           opt subtitle "HI-TECH Software Omniscient Code Generator (Lite mode) build 49521"
   449  0000                     PIR1 equ 0F9Eh ;# 
   450                           opt subtitle "HI-TECH Software Omniscient Code Generator (Lite mode) build 49521"
   451  0000                     IPR1 equ 0F9Fh ;# 
   452                           opt subtitle "HI-TECH Software Omniscient Code Generator (Lite mode) build 49521"
   453  0000                     PIE2 equ 0FA0h ;# 
   454                           opt subtitle "HI-TECH Software Omniscient Code Generator (Lite mode) build 49521"
   455  0000                     PIR2 equ 0FA1h ;# 
   456                           opt subtitle "HI-TECH Software Omniscient Code Generator (Lite mode) build 49521"
   457  0000                     IPR2 equ 0FA2h ;# 
   458                           opt subtitle "HI-TECH Software Omniscient Code Generator (Lite mode) build 49521"
   459  0000                     EECON1 equ 0FA6h ;# 
   460                           opt subtitle "HI-TECH Software Omniscient Code Generator (Lite mode) build 49521"
   461  0000                     EECON2 equ 0FA7h ;# 
   462                           opt subtitle "HI-TECH Software Omniscient Code Generator (Lite mode) build 49521"
   463  0000                     EEDATA equ 0FA8h ;# 
   464                           opt subtitle "HI-TECH Software Omniscient Code Generator (Lite mode) build 49521"
   465  0000                     EEADR equ 0FA9h ;# 
   466                           opt subtitle "HI-TECH Software Omniscient Code Generator (Lite mode) build 49521"
   467  0000                     RCSTA equ 0FABh ;# 
   468                           opt subtitle "HI-TECH Software Omniscient Code Generator (Lite mode) build 49521"
   469  0000                     RCSTA1 equ 0FABh ;# 
   470                           opt subtitle "HI-TECH Software Omniscient Code Generator (Lite mode) build 49521"
   471  0000                     TXSTA equ 0FACh ;# 
   472                           opt subtitle "HI-TECH Software Omniscient Code Generator (Lite mode) build 49521"
   473  0000                     TXSTA1 equ 0FACh ;# 
   474                           opt subtitle "HI-TECH Software Omniscient Code Generator (Lite mode) build 49521"
   475  0000                     TXREG equ 0FADh ;# 
   476                           opt subtitle "HI-TECH Software Omniscient Code Generator (Lite mode) build 49521"
   477  0000                     TXREG1 equ 0FADh ;# 
   478                           opt subtitle "HI-TECH Software Omniscient Code Generator (Lite mode) build 49521"
   479  0000                     RCREG equ 0FAEh ;# 
   480                           opt subtitle "HI-TECH Software Omniscient Code Generator (Lite mode) build 49521"
   481  0000                     RCREG1 equ 0FAEh ;# 
   482                           opt subtitle "HI-TECH Software Omniscient Code Generator (Lite mode) build 49521"
   483  0000                     SPBRG equ 0FAFh ;# 
   484                           opt subtitle "HI-TECH Software Omniscient Code Generator (Lite mode) build 49521"
   485  0000                     SPBRG1 equ 0FAFh ;# 
   486                           opt subtitle "HI-TECH Software Omniscient Code Generator (Lite mode) build 49521"
   487  0000                     SPBRGH equ 0FB0h ;# 
   488                           opt subtitle "HI-TECH Software Omniscient Code Generator (Lite mode) build 49521"
   489  0000                     T3CON equ 0FB1h ;# 
   490                           opt subtitle "HI-TECH Software Omniscient Code Generator (Lite mode) build 49521"
   491  0000                     TMR3 equ 0FB2h ;# 
   492                           opt subtitle "HI-TECH Software Omniscient Code Generator (Lite mode) build 49521"
   493  0000                     TMR3L equ 0FB2h ;# 
   494                           opt subtitle "HI-TECH Software Omniscient Code Generator (Lite mode) build 49521"
   495  0000                     TMR3H equ 0FB3h ;# 
   496                           opt subtitle "HI-TECH Software Omniscient Code Generator (Lite mode) build 49521"
   497  0000                     ECCP1AS equ 0FB6h ;# 
   498                           opt subtitle "HI-TECH Software Omniscient Code Generator (Lite mode) build 49521"
   499  0000                     PWM1CON equ 0FB7h ;# 
   500                           opt subtitle "HI-TECH Software Omniscient Code Generator (Lite mode) build 49521"
   501  0000                     BAUDCON equ 0FB8h ;# 
   502                           opt subtitle "HI-TECH Software Omniscient Code Generator (Lite mode) build 49521"
   503  0000                     BAUDCTL equ 0FB8h ;# 
   504                           opt subtitle "HI-TECH Software Omniscient Code Generator (Lite mode) build 49521"
   505  0000                     PSTRCON equ 0FB9h ;# 
   506                           opt subtitle "HI-TECH Software Omniscient Code Generator (Lite mode) build 49521"
   507  0000                     VREFCON0 equ 0FBAh ;# 
   508                           opt subtitle "HI-TECH Software Omniscient Code Generator (Lite mode) build 49521"
   509  0000                     REFCON0 equ 0FBAh ;# 
   510                           opt subtitle "HI-TECH Software Omniscient Code Generator (Lite mode) build 49521"
   511  0000                     VREFCON1 equ 0FBBh ;# 
   512                           opt subtitle "HI-TECH Software Omniscient Code Generator (Lite mode) build 49521"
   513  0000                     REFCON1 equ 0FBBh ;# 
   514                           opt subtitle "HI-TECH Software Omniscient Code Generator (Lite mode) build 49521"
   515  0000                     VREFCON2 equ 0FBCh ;# 
   516                           opt subtitle "HI-TECH Software Omniscient Code Generator (Lite mode) build 49521"
   517  0000                     REFCON2 equ 0FBCh ;# 
   518                           opt subtitle "HI-TECH Software Omniscient Code Generator (Lite mode) build 49521"
   519  0000                     CCP1CON equ 0FBDh ;# 
   520                           opt subtitle "HI-TECH Software Omniscient Code Generator (Lite mode) build 49521"
   521  0000                     CCPR1 equ 0FBEh ;# 
   522                           opt subtitle "HI-TECH Software Omniscient Code Generator (Lite mode) build 49521"
   523  0000                     CCPR1L equ 0FBEh ;# 
   524                           opt subtitle "HI-TECH Software Omniscient Code Generator (Lite mode) build 49521"
   525  0000                     CCPR1H equ 0FBFh ;# 
   526                           opt subtitle "HI-TECH Software Omniscient Code Generator (Lite mode) build 49521"
   527  0000                     ADCON2 equ 0FC0h ;# 
   528                           opt subtitle "HI-TECH Software Omniscient Code Generator (Lite mode) build 49521"
   529  0000                     ADCON1 equ 0FC1h ;# 
   530                           opt subtitle "HI-TECH Software Omniscient Code Generator (Lite mode) build 49521"
   531  0000                     ADCON0 equ 0FC2h ;# 
   532                           opt subtitle "HI-TECH Software Omniscient Code Generator (Lite mode) build 49521"
   533  0000                     ADRES equ 0FC3h ;# 
   534                           opt subtitle "HI-TECH Software Omniscient Code Generator (Lite mode) build 49521"
   535  0000                     ADRESL equ 0FC3h ;# 
   536                           opt subtitle "HI-TECH Software Omniscient Code Generator (Lite mode) build 49521"
   537  0000                     ADRESH equ 0FC4h ;# 
   538                           opt subtitle "HI-TECH Software Omniscient Code Generator (Lite mode) build 49521"
   539  0000                     SSPCON2 equ 0FC5h ;# 
   540                           opt subtitle "HI-TECH Software Omniscient Code Generator (Lite mode) build 49521"
   541  0000                     SSPCON1 equ 0FC6h ;# 
   542                           opt subtitle "HI-TECH Software Omniscient Code Generator (Lite mode) build 49521"
   543  0000                     SSPSTAT equ 0FC7h ;# 
   544                           opt subtitle "HI-TECH Software Omniscient Code Generator (Lite mode) build 49521"
   545  0000                     SSPADD equ 0FC8h ;# 
   546                           opt subtitle "HI-TECH Software Omniscient Code Generator (Lite mode) build 49521"
   547  0000                     SSPBUF equ 0FC9h ;# 
   548                           opt subtitle "HI-TECH Software Omniscient Code Generator (Lite mode) build 49521"
   549  0000                     T2CON equ 0FCAh ;# 
   550                           opt subtitle "HI-TECH Software Omniscient Code Generator (Lite mode) build 49521"
   551  0000                     PR2 equ 0FCBh ;# 
   552                           opt subtitle "HI-TECH Software Omniscient Code Generator (Lite mode) build 49521"
   553  0000                     MEMCON equ 0FCBh ;# 
   554                           opt subtitle "HI-TECH Software Omniscient Code Generator (Lite mode) build 49521"
   555  0000                     TMR2 equ 0FCCh ;# 
   556                           opt subtitle "HI-TECH Software Omniscient Code Generator (Lite mode) build 49521"
   557  0000                     T1CON equ 0FCDh ;# 
   558                           opt subtitle "HI-TECH Software Omniscient Code Generator (Lite mode) build 49521"
   559  0000                     TMR1 equ 0FCEh ;# 
   560                           opt subtitle "HI-TECH Software Omniscient Code Generator (Lite mode) build 49521"
   561  0000                     TMR1L equ 0FCEh ;# 
   562                           opt subtitle "HI-TECH Software Omniscient Code Generator (Lite mode) build 49521"
   563  0000                     TMR1H equ 0FCFh ;# 
   564                           opt subtitle "HI-TECH Software Omniscient Code Generator (Lite mode) build 49521"
   565  0000                     RCON equ 0FD0h ;# 
   566                           opt subtitle "HI-TECH Software Omniscient Code Generator (Lite mode) build 49521"
   567  0000                     WDTCON equ 0FD1h ;# 
   568                           opt subtitle "HI-TECH Software Omniscient Code Generator (Lite mode) build 49521"
   569  0000                     OSCCON2 equ 0FD2h ;# 
   570                           opt subtitle "HI-TECH Software Omniscient Code Generator (Lite mode) build 49521"
   571  0000                     OSCCON equ 0FD3h ;# 
   572                           opt subtitle "HI-TECH Software Omniscient Code Generator (Lite mode) build 49521"
   573  0000                     T0CON equ 0FD5h ;# 
   574                           opt subtitle "HI-TECH Software Omniscient Code Generator (Lite mode) build 49521"
   575  0000                     TMR0 equ 0FD6h ;# 
   576                           opt subtitle "HI-TECH Software Omniscient Code Generator (Lite mode) build 49521"
   577  0000                     TMR0L equ 0FD6h ;# 
   578                           opt subtitle "HI-TECH Software Omniscient Code Generator (Lite mode) build 49521"
   579  0000                     TMR0H equ 0FD7h ;# 
   580                           opt subtitle "HI-TECH Software Omniscient Code Generator (Lite mode) build 49521"
   581  0000                     STATUS equ 0FD8h ;# 
   582                           opt subtitle "HI-TECH Software Omniscient Code Generator (Lite mode) build 49521"
   583  0000                     FSR2 equ 0FD9h ;# 
   584                           opt subtitle "HI-TECH Software Omniscient Code Generator (Lite mode) build 49521"
   585  0000                     FSR2L equ 0FD9h ;# 
   586                           opt subtitle "HI-TECH Software Omniscient Code Generator (Lite mode) build 49521"
   587  0000                     FSR2H equ 0FDAh ;# 
   588                           opt subtitle "HI-TECH Software Omniscient Code Generator (Lite mode) build 49521"
   589  0000                     PLUSW2 equ 0FDBh ;# 
   590                           opt subtitle "HI-TECH Software Omniscient Code Generator (Lite mode) build 49521"
   591  0000                     PREINC2 equ 0FDCh ;# 
   592                           opt subtitle "HI-TECH Software Omniscient Code Generator (Lite mode) build 49521"
   593  0000                     POSTDEC2 equ 0FDDh ;# 
   594                           opt subtitle "HI-TECH Software Omniscient Code Generator (Lite mode) build 49521"
   595  0000                     POSTINC2 equ 0FDEh ;# 
   596                           opt subtitle "HI-TECH Software Omniscient Code Generator (Lite mode) build 49521"
   597  0000                     INDF2 equ 0FDFh ;# 
   598                           opt subtitle "HI-TECH Software Omniscient Code Generator (Lite mode) build 49521"
   599  0000                     BSR equ 0FE0h ;# 
   600                           opt subtitle "HI-TECH Software Omniscient Code Generator (Lite mode) build 49521"
   601  0000                     FSR1 equ 0FE1h ;# 
   602                           opt subtitle "HI-TECH Software Omniscient Code Generator (Lite mode) build 49521"
   603  0000                     FSR1L equ 0FE1h ;# 
   604                           opt subtitle "HI-TECH Software Omniscient Code Generator (Lite mode) build 49521"
   605  0000                     FSR1H equ 0FE2h ;# 
   606                           opt subtitle "HI-TECH Software Omniscient Code Generator (Lite mode) build 49521"
   607  0000                     PLUSW1 equ 0FE3h ;# 
   608                           opt subtitle "HI-TECH Software Omniscient Code Generator (Lite mode) build 49521"
   609  0000                     PREINC1 equ 0FE4h ;# 
   610                           opt subtitle "HI-TECH Software Omniscient Code Generator (Lite mode) build 49521"
   611  0000                     POSTDEC1 equ 0FE5h ;# 
   612                           opt subtitle "HI-TECH Software Omniscient Code Generator (Lite mode) build 49521"
   613  0000                     POSTINC1 equ 0FE6h ;# 
   614                           opt subtitle "HI-TECH Software Omniscient Code Generator (Lite mode) build 49521"
   615  0000                     INDF1 equ 0FE7h ;# 
   616                           opt subtitle "HI-TECH Software Omniscient Code Generator (Lite mode) build 49521"
   617  0000                     WREG equ 0FE8h ;# 
   618                           opt subtitle "HI-TECH Software Omniscient Code Generator (Lite mode) build 49521"
   619  0000                     FSR0 equ 0FE9h ;# 
   620                           opt subtitle "HI-TECH Software Omniscient Code Generator (Lite mode) build 49521"
   621  0000                     FSR0L equ 0FE9h ;# 
   622                           opt subtitle "HI-TECH Software Omniscient Code Generator (Lite mode) build 49521"
   623  0000                     FSR0H equ 0FEAh ;# 
   624                           opt subtitle "HI-TECH Software Omniscient Code Generator (Lite mode) build 49521"
   625  0000                     PLUSW0 equ 0FEBh ;# 
   626                           opt subtitle "HI-TECH Software Omniscient Code Generator (Lite mode) build 49521"
   627  0000                     PREINC0 equ 0FECh ;# 
   628                           opt subtitle "HI-TECH Software Omniscient Code Generator (Lite mode) build 49521"
   629  0000                     POSTDEC0 equ 0FEDh ;# 
   630                           opt subtitle "HI-TECH Software Omniscient Code Generator (Lite mode) build 49521"
   631  0000                     POSTINC0 equ 0FEEh ;# 
   632                           opt subtitle "HI-TECH Software Omniscient Code Generator (Lite mode) build 49521"
   633  0000                     INDF0 equ 0FEFh ;# 
   634                           opt subtitle "HI-TECH Software Omniscient Code Generator (Lite mode) build 49521"
   635  0000                     INTCON3 equ 0FF0h ;# 
   636                           opt subtitle "HI-TECH Software Omniscient Code Generator (Lite mode) build 49521"
   637  0000                     INTCON2 equ 0FF1h ;# 
   638                           opt subtitle "HI-TECH Software Omniscient Code Generator (Lite mode) build 49521"
   639  0000                     INTCON equ 0FF2h ;# 
   640                           opt subtitle "HI-TECH Software Omniscient Code Generator (Lite mode) build 49521"
   641  0000                     PROD equ 0FF3h ;# 
   642                           opt subtitle "HI-TECH Software Omniscient Code Generator (Lite mode) build 49521"
   643  0000                     PRODL equ 0FF3h ;# 
   644                           opt subtitle "HI-TECH Software Omniscient Code Generator (Lite mode) build 49521"
   645  0000                     PRODH equ 0FF4h ;# 
   646                           opt subtitle "HI-TECH Software Omniscient Code Generator (Lite mode) build 49521"
   647  0000                     TABLAT equ 0FF5h ;# 
   648                           opt subtitle "HI-TECH Software Omniscient Code Generator (Lite mode) build 49521"
   649  0000                     TBLPTR equ 0FF6h ;# 
   650                           opt subtitle "HI-TECH Software Omniscient Code Generator (Lite mode) build 49521"
   651  0000                     TBLPTRL equ 0FF6h ;# 
   652                           opt subtitle "HI-TECH Software Omniscient Code Generator (Lite mode) build 49521"
   653  0000                     TBLPTRH equ 0FF7h ;# 
   654                           opt subtitle "HI-TECH Software Omniscient Code Generator (Lite mode) build 49521"
   655  0000                     TBLPTRU equ 0FF8h ;# 
   656                           opt subtitle "HI-TECH Software Omniscient Code Generator (Lite mode) build 49521"
   657  0000                     PCLAT equ 0FF9h ;# 
   658                           opt subtitle "HI-TECH Software Omniscient Code Generator (Lite mode) build 49521"
   659  0000                     PC equ 0FF9h ;# 
   660                           opt subtitle "HI-TECH Software Omniscient Code Generator (Lite mode) build 49521"
   661  0000                     PCL equ 0FF9h ;# 
   662                           opt subtitle "HI-TECH Software Omniscient Code Generator (Lite mode) build 49521"
   663  0000                     PCLATH equ 0FFAh ;# 
   664                           opt subtitle "HI-TECH Software Omniscient Code Generator (Lite mode) build 49521"
   665  0000                     PCLATU equ 0FFBh ;# 
   666                           opt subtitle "HI-TECH Software Omniscient Code Generator (Lite mode) build 49521"
   667  0000                     STKPTR equ 0FFCh ;# 
   668                           opt subtitle "HI-TECH Software Omniscient Code Generator (Lite mode) build 49521"
   669  0000                     TOS equ 0FFDh ;# 
   670                           opt subtitle "HI-TECH Software Omniscient Code Generator (Lite mode) build 49521"
   671  0000                     TOSL equ 0FFDh ;# 
   672                           opt subtitle "HI-TECH Software Omniscient Code Generator (Lite mode) build 49521"
   673  0000                     TOSH equ 0FFEh ;# 
   674                           opt subtitle "HI-TECH Software Omniscient Code Generator (Lite mode) build 49521"
   675  0000                     TOSU equ 0FFFh ;# 
   676                           opt subtitle "HI-TECH Software Omniscient Code Generator (Lite mode) build 49521"
   677  0000                     SRCON0 equ 0F68h ;# 
   678                           opt subtitle "HI-TECH Software Omniscient Code Generator (Lite mode) build 49521"
   679  0000                     SRCON1 equ 0F69h ;# 
   680                           opt subtitle "HI-TECH Software Omniscient Code Generator (Lite mode) build 49521"
   681  0000                     CM2CON0 equ 0F6Bh ;# 
   682                           opt subtitle "HI-TECH Software Omniscient Code Generator (Lite mode) build 49521"
   683  0000                     CM2CON1 equ 0F6Ch ;# 
   684                           opt subtitle "HI-TECH Software Omniscient Code Generator (Lite mode) build 49521"
   685  0000                     CM1CON0 equ 0F6Dh ;# 
   686                           opt subtitle "HI-TECH Software Omniscient Code Generator (Lite mode) build 49521"
   687  0000                     SSPMSK equ 0F6Fh ;# 
   688                           opt subtitle "HI-TECH Software Omniscient Code Generator (Lite mode) build 49521"
   689  0000                     SSPMASK equ 0F6Fh ;# 
   690                           opt subtitle "HI-TECH Software Omniscient Code Generator (Lite mode) build 49521"
   691  0000                     SLRCON equ 0F76h ;# 
   692                           opt subtitle "HI-TECH Software Omniscient Code Generator (Lite mode) build 49521"
   693  0000                     WPUA equ 0F77h ;# 
   694                           opt subtitle "HI-TECH Software Omniscient Code Generator (Lite mode) build 49521"
   695  0000                     WPUB equ 0F78h ;# 
   696                           opt subtitle "HI-TECH Software Omniscient Code Generator (Lite mode) build 49521"
   697  0000                     IOCA equ 0F79h ;# 
   698                           opt subtitle "HI-TECH Software Omniscient Code Generator (Lite mode) build 49521"
   699  0000                     IOCB equ 0F7Ah ;# 
   700                           opt subtitle "HI-TECH Software Omniscient Code Generator (Lite mode) build 49521"
   701  0000                     ANSEL equ 0F7Eh ;# 
   702                           opt subtitle "HI-TECH Software Omniscient Code Generator (Lite mode) build 49521"
   703  0000                     ANSELH equ 0F7Fh ;# 
   704                           opt subtitle "HI-TECH Software Omniscient Code Generator (Lite mode) build 49521"
   705  0000                     PORTA equ 0F80h ;# 
   706                           opt subtitle "HI-TECH Software Omniscient Code Generator (Lite mode) build 49521"
   707  0000                     PORTB equ 0F81h ;# 
   708                           opt subtitle "HI-TECH Software Omniscient Code Generator (Lite mode) build 49521"
   709  0000                     PORTC equ 0F82h ;# 
   710                           opt subtitle "HI-TECH Software Omniscient Code Generator (Lite mode) build 49521"
   711  0000                     LATA equ 0F89h ;# 
   712                           opt subtitle "HI-TECH Software Omniscient Code Generator (Lite mode) build 49521"
   713  0000                     LATB equ 0F8Ah ;# 
   714                           opt subtitle "HI-TECH Software Omniscient Code Generator (Lite mode) build 49521"
   715  0000                     LATC equ 0F8Bh ;# 
   716                           opt subtitle "HI-TECH Software Omniscient Code Generator (Lite mode) build 49521"
   717  0000                     TRISA equ 0F92h ;# 
   718                           opt subtitle "HI-TECH Software Omniscient Code Generator (Lite mode) build 49521"
   719  0000                     DDRA equ 0F92h ;# 
   720                           opt subtitle "HI-TECH Software Omniscient Code Generator (Lite mode) build 49521"
   721  0000                     TRISB equ 0F93h ;# 
   722                           opt subtitle "HI-TECH Software Omniscient Code Generator (Lite mode) build 49521"
   723  0000                     DDRB equ 0F93h ;# 
   724                           opt subtitle "HI-TECH Software Omniscient Code Generator (Lite mode) build 49521"
   725  0000                     TRISC equ 0F94h ;# 
   726                           opt subtitle "HI-TECH Software Omniscient Code Generator (Lite mode) build 49521"
   727  0000                     DDRC equ 0F94h ;# 
   728                           opt subtitle "HI-TECH Software Omniscient Code Generator (Lite mode) build 49521"
   729  0000                     OSCTUNE equ 0F9Bh ;# 
   730                           opt subtitle "HI-TECH Software Omniscient Code Generator (Lite mode) build 49521"
   731  0000                     PIE1 equ 0F9Dh ;# 
   732                           opt subtitle "HI-TECH Software Omniscient Code Generator (Lite mode) build 49521"
   733  0000                     PIR1 equ 0F9Eh ;# 
   734                           opt subtitle "HI-TECH Software Omniscient Code Generator (Lite mode) build 49521"
   735  0000                     IPR1 equ 0F9Fh ;# 
   736                           opt subtitle "HI-TECH Software Omniscient Code Generator (Lite mode) build 49521"
   737  0000                     PIE2 equ 0FA0h ;# 
   738                           opt subtitle "HI-TECH Software Omniscient Code Generator (Lite mode) build 49521"
   739  0000                     PIR2 equ 0FA1h ;# 
   740                           opt subtitle "HI-TECH Software Omniscient Code Generator (Lite mode) build 49521"
   741  0000                     IPR2 equ 0FA2h ;# 
   742                           opt subtitle "HI-TECH Software Omniscient Code Generator (Lite mode) build 49521"
   743  0000                     EECON1 equ 0FA6h ;# 
   744                           opt subtitle "HI-TECH Software Omniscient Code Generator (Lite mode) build 49521"
   745  0000                     EECON2 equ 0FA7h ;# 
   746                           opt subtitle "HI-TECH Software Omniscient Code Generator (Lite mode) build 49521"
   747  0000                     EEDATA equ 0FA8h ;# 
   748                           opt subtitle "HI-TECH Software Omniscient Code Generator (Lite mode) build 49521"
   749  0000                     EEADR equ 0FA9h ;# 
   750                           opt subtitle "HI-TECH Software Omniscient Code Generator (Lite mode) build 49521"
   751  0000                     RCSTA equ 0FABh ;# 
   752                           opt subtitle "HI-TECH Software Omniscient Code Generator (Lite mode) build 49521"
   753  0000                     RCSTA1 equ 0FABh ;# 
   754                           opt subtitle "HI-TECH Software Omniscient Code Generator (Lite mode) build 49521"
   755  0000                     TXSTA equ 0FACh ;# 
   756                           opt subtitle "HI-TECH Software Omniscient Code Generator (Lite mode) build 49521"
   757  0000                     TXSTA1 equ 0FACh ;# 
   758                           opt subtitle "HI-TECH Software Omniscient Code Generator (Lite mode) build 49521"
   759  0000                     TXREG equ 0FADh ;# 
   760                           opt subtitle "HI-TECH Software Omniscient Code Generator (Lite mode) build 49521"
   761  0000                     TXREG1 equ 0FADh ;# 
   762                           opt subtitle "HI-TECH Software Omniscient Code Generator (Lite mode) build 49521"
   763  0000                     RCREG equ 0FAEh ;# 
   764                           opt subtitle "HI-TECH Software Omniscient Code Generator (Lite mode) build 49521"
   765  0000                     RCREG1 equ 0FAEh ;# 
   766                           opt subtitle "HI-TECH Software Omniscient Code Generator (Lite mode) build 49521"
   767  0000                     SPBRG equ 0FAFh ;# 
   768                           opt subtitle "HI-TECH Software Omniscient Code Generator (Lite mode) build 49521"
   769  0000                     SPBRG1 equ 0FAFh ;# 
   770                           opt subtitle "HI-TECH Software Omniscient Code Generator (Lite mode) build 49521"
   771  0000                     SPBRGH equ 0FB0h ;# 
   772                           opt subtitle "HI-TECH Software Omniscient Code Generator (Lite mode) build 49521"
   773  0000                     T3CON equ 0FB1h ;# 
   774                           opt subtitle "HI-TECH Software Omniscient Code Generator (Lite mode) build 49521"
   775  0000                     TMR3 equ 0FB2h ;# 
   776                           opt subtitle "HI-TECH Software Omniscient Code Generator (Lite mode) build 49521"
   777  0000                     TMR3L equ 0FB2h ;# 
   778                           opt subtitle "HI-TECH Software Omniscient Code Generator (Lite mode) build 49521"
   779  0000                     TMR3H equ 0FB3h ;# 
   780                           opt subtitle "HI-TECH Software Omniscient Code Generator (Lite mode) build 49521"
   781  0000                     ECCP1AS equ 0FB6h ;# 
   782                           opt subtitle "HI-TECH Software Omniscient Code Generator (Lite mode) build 49521"
   783  0000                     PWM1CON equ 0FB7h ;# 
   784                           opt subtitle "HI-TECH Software Omniscient Code Generator (Lite mode) build 49521"
   785  0000                     BAUDCON equ 0FB8h ;# 
   786                           opt subtitle "HI-TECH Software Omniscient Code Generator (Lite mode) build 49521"
   787  0000                     BAUDCTL equ 0FB8h ;# 
   788                           opt subtitle "HI-TECH Software Omniscient Code Generator (Lite mode) build 49521"
   789  0000                     PSTRCON equ 0FB9h ;# 
   790                           opt subtitle "HI-TECH Software Omniscient Code Generator (Lite mode) build 49521"
   791  0000                     VREFCON0 equ 0FBAh ;# 
   792                           opt subtitle "HI-TECH Software Omniscient Code Generator (Lite mode) build 49521"
   793  0000                     REFCON0 equ 0FBAh ;# 
   794                           opt subtitle "HI-TECH Software Omniscient Code Generator (Lite mode) build 49521"
   795  0000                     VREFCON1 equ 0FBBh ;# 
   796                           opt subtitle "HI-TECH Software Omniscient Code Generator (Lite mode) build 49521"
   797  0000                     REFCON1 equ 0FBBh ;# 
   798                           opt subtitle "HI-TECH Software Omniscient Code Generator (Lite mode) build 49521"
   799  0000                     VREFCON2 equ 0FBCh ;# 
   800                           opt subtitle "HI-TECH Software Omniscient Code Generator (Lite mode) build 49521"
   801  0000                     REFCON2 equ 0FBCh ;# 
   802                           opt subtitle "HI-TECH Software Omniscient Code Generator (Lite mode) build 49521"
   803  0000                     CCP1CON equ 0FBDh ;# 
   804                           opt subtitle "HI-TECH Software Omniscient Code Generator (Lite mode) build 49521"
   805  0000                     CCPR1 equ 0FBEh ;# 
   806                           opt subtitle "HI-TECH Software Omniscient Code Generator (Lite mode) build 49521"
   807  0000                     CCPR1L equ 0FBEh ;# 
   808                           opt subtitle "HI-TECH Software Omniscient Code Generator (Lite mode) build 49521"
   809  0000                     CCPR1H equ 0FBFh ;# 
   810                           opt subtitle "HI-TECH Software Omniscient Code Generator (Lite mode) build 49521"
   811  0000                     ADCON2 equ 0FC0h ;# 
   812                           opt subtitle "HI-TECH Software Omniscient Code Generator (Lite mode) build 49521"
   813  0000                     ADCON1 equ 0FC1h ;# 
   814                           opt subtitle "HI-TECH Software Omniscient Code Generator (Lite mode) build 49521"
   815  0000                     ADCON0 equ 0FC2h ;# 
   816                           opt subtitle "HI-TECH Software Omniscient Code Generator (Lite mode) build 49521"
   817  0000                     ADRES equ 0FC3h ;# 
   818                           opt subtitle "HI-TECH Software Omniscient Code Generator (Lite mode) build 49521"
   819  0000                     ADRESL equ 0FC3h ;# 
   820                           opt subtitle "HI-TECH Software Omniscient Code Generator (Lite mode) build 49521"
   821  0000                     ADRESH equ 0FC4h ;# 
   822                           opt subtitle "HI-TECH Software Omniscient Code Generator (Lite mode) build 49521"
   823  0000                     SSPCON2 equ 0FC5h ;# 
   824                           opt subtitle "HI-TECH Software Omniscient Code Generator (Lite mode) build 49521"
   825  0000                     SSPCON1 equ 0FC6h ;# 
   826                           opt subtitle "HI-TECH Software Omniscient Code Generator (Lite mode) build 49521"
   827  0000                     SSPSTAT equ 0FC7h ;# 
   828                           opt subtitle "HI-TECH Software Omniscient Code Generator (Lite mode) build 49521"
   829  0000                     SSPADD equ 0FC8h ;# 
   830                           opt subtitle "HI-TECH Software Omniscient Code Generator (Lite mode) build 49521"
   831  0000                     SSPBUF equ 0FC9h ;# 
   832                           opt subtitle "HI-TECH Software Omniscient Code Generator (Lite mode) build 49521"
   833  0000                     T2CON equ 0FCAh ;# 
   834                           opt subtitle "HI-TECH Software Omniscient Code Generator (Lite mode) build 49521"
   835  0000                     PR2 equ 0FCBh ;# 
   836                           opt subtitle "HI-TECH Software Omniscient Code Generator (Lite mode) build 49521"
   837  0000                     MEMCON equ 0FCBh ;# 
   838                           opt subtitle "HI-TECH Software Omniscient Code Generator (Lite mode) build 49521"
   839  0000                     TMR2 equ 0FCCh ;# 
   840                           opt subtitle "HI-TECH Software Omniscient Code Generator (Lite mode) build 49521"
   841  0000                     T1CON equ 0FCDh ;# 
   842                           opt subtitle "HI-TECH Software Omniscient Code Generator (Lite mode) build 49521"
   843  0000                     TMR1 equ 0FCEh ;# 
   844                           opt subtitle "HI-TECH Software Omniscient Code Generator (Lite mode) build 49521"
   845  0000                     TMR1L equ 0FCEh ;# 
   846                           opt subtitle "HI-TECH Software Omniscient Code Generator (Lite mode) build 49521"
   847  0000                     TMR1H equ 0FCFh ;# 
   848                           opt subtitle "HI-TECH Software Omniscient Code Generator (Lite mode) build 49521"
   849  0000                     RCON equ 0FD0h ;# 
   850                           opt subtitle "HI-TECH Software Omniscient Code Generator (Lite mode) build 49521"
   851  0000                     WDTCON equ 0FD1h ;# 
   852                           opt subtitle "HI-TECH Software Omniscient Code Generator (Lite mode) build 49521"
   853  0000                     OSCCON2 equ 0FD2h ;# 
   854                           opt subtitle "HI-TECH Software Omniscient Code Generator (Lite mode) build 49521"
   855  0000                     OSCCON equ 0FD3h ;# 
   856                           opt subtitle "HI-TECH Software Omniscient Code Generator (Lite mode) build 49521"
   857  0000                     T0CON equ 0FD5h ;# 
   858                           opt subtitle "HI-TECH Software Omniscient Code Generator (Lite mode) build 49521"
   859  0000                     TMR0 equ 0FD6h ;# 
   860                           opt subtitle "HI-TECH Software Omniscient Code Generator (Lite mode) build 49521"
   861  0000                     TMR0L equ 0FD6h ;# 
   862                           opt subtitle "HI-TECH Software Omniscient Code Generator (Lite mode) build 49521"
   863  0000                     TMR0H equ 0FD7h ;# 
   864                           opt subtitle "HI-TECH Software Omniscient Code Generator (Lite mode) build 49521"
   865  0000                     STATUS equ 0FD8h ;# 
   866                           opt subtitle "HI-TECH Software Omniscient Code Generator (Lite mode) build 49521"
   867  0000                     FSR2 equ 0FD9h ;# 
   868                           opt subtitle "HI-TECH Software Omniscient Code Generator (Lite mode) build 49521"
   869  0000                     FSR2L equ 0FD9h ;# 
   870                           opt subtitle "HI-TECH Software Omniscient Code Generator (Lite mode) build 49521"
   871  0000                     FSR2H equ 0FDAh ;# 
   872                           opt subtitle "HI-TECH Software Omniscient Code Generator (Lite mode) build 49521"
   873  0000                     PLUSW2 equ 0FDBh ;# 
   874                           opt subtitle "HI-TECH Software Omniscient Code Generator (Lite mode) build 49521"
   875  0000                     PREINC2 equ 0FDCh ;# 
   876                           opt subtitle "HI-TECH Software Omniscient Code Generator (Lite mode) build 49521"
   877  0000                     POSTDEC2 equ 0FDDh ;# 
   878                           opt subtitle "HI-TECH Software Omniscient Code Generator (Lite mode) build 49521"
   879  0000                     POSTINC2 equ 0FDEh ;# 
   880                           opt subtitle "HI-TECH Software Omniscient Code Generator (Lite mode) build 49521"
   881  0000                     INDF2 equ 0FDFh ;# 
   882                           opt subtitle "HI-TECH Software Omniscient Code Generator (Lite mode) build 49521"
   883  0000                     BSR equ 0FE0h ;# 
   884                           opt subtitle "HI-TECH Software Omniscient Code Generator (Lite mode) build 49521"
   885  0000                     FSR1 equ 0FE1h ;# 
   886                           opt subtitle "HI-TECH Software Omniscient Code Generator (Lite mode) build 49521"
   887  0000                     FSR1L equ 0FE1h ;# 
   888                           opt subtitle "HI-TECH Software Omniscient Code Generator (Lite mode) build 49521"
   889  0000                     FSR1H equ 0FE2h ;# 
   890                           opt subtitle "HI-TECH Software Omniscient Code Generator (Lite mode) build 49521"
   891  0000                     PLUSW1 equ 0FE3h ;# 
   892                           opt subtitle "HI-TECH Software Omniscient Code Generator (Lite mode) build 49521"
   893  0000                     PREINC1 equ 0FE4h ;# 
   894                           opt subtitle "HI-TECH Software Omniscient Code Generator (Lite mode) build 49521"
   895  0000                     POSTDEC1 equ 0FE5h ;# 
   896                           opt subtitle "HI-TECH Software Omniscient Code Generator (Lite mode) build 49521"
   897  0000                     POSTINC1 equ 0FE6h ;# 
   898                           opt subtitle "HI-TECH Software Omniscient Code Generator (Lite mode) build 49521"
   899  0000                     INDF1 equ 0FE7h ;# 
   900                           opt subtitle "HI-TECH Software Omniscient Code Generator (Lite mode) build 49521"
   901  0000                     WREG equ 0FE8h ;# 
   902                           opt subtitle "HI-TECH Software Omniscient Code Generator (Lite mode) build 49521"
   903  0000                     FSR0 equ 0FE9h ;# 
   904                           opt subtitle "HI-TECH Software Omniscient Code Generator (Lite mode) build 49521"
   905  0000                     FSR0L equ 0FE9h ;# 
   906                           opt subtitle "HI-TECH Software Omniscient Code Generator (Lite mode) build 49521"
   907  0000                     FSR0H equ 0FEAh ;# 
   908                           opt subtitle "HI-TECH Software Omniscient Code Generator (Lite mode) build 49521"
   909  0000                     PLUSW0 equ 0FEBh ;# 
   910                           opt subtitle "HI-TECH Software Omniscient Code Generator (Lite mode) build 49521"
   911  0000                     PREINC0 equ 0FECh ;# 
   912                           opt subtitle "HI-TECH Software Omniscient Code Generator (Lite mode) build 49521"
   913  0000                     POSTDEC0 equ 0FEDh ;# 
   914                           opt subtitle "HI-TECH Software Omniscient Code Generator (Lite mode) build 49521"
   915  0000                     POSTINC0 equ 0FEEh ;# 
   916                           opt subtitle "HI-TECH Software Omniscient Code Generator (Lite mode) build 49521"
   917  0000                     INDF0 equ 0FEFh ;# 
   918                           opt subtitle "HI-TECH Software Omniscient Code Generator (Lite mode) build 49521"
   919  0000                     INTCON3 equ 0FF0h ;# 
   920                           opt subtitle "HI-TECH Software Omniscient Code Generator (Lite mode) build 49521"
   921  0000                     INTCON2 equ 0FF1h ;# 
   922                           opt subtitle "HI-TECH Software Omniscient Code Generator (Lite mode) build 49521"
   923  0000                     INTCON equ 0FF2h ;# 
   924                           opt subtitle "HI-TECH Software Omniscient Code Generator (Lite mode) build 49521"
   925  0000                     PROD equ 0FF3h ;# 
   926                           opt subtitle "HI-TECH Software Omniscient Code Generator (Lite mode) build 49521"
   927  0000                     PRODL equ 0FF3h ;# 
   928                           opt subtitle "HI-TECH Software Omniscient Code Generator (Lite mode) build 49521"
   929  0000                     PRODH equ 0FF4h ;# 
   930                           opt subtitle "HI-TECH Software Omniscient Code Generator (Lite mode) build 49521"
   931  0000                     TABLAT equ 0FF5h ;# 
   932                           opt subtitle "HI-TECH Software Omniscient Code Generator (Lite mode) build 49521"
   933  0000                     TBLPTR equ 0FF6h ;# 
   934                           opt subtitle "HI-TECH Software Omniscient Code Generator (Lite mode) build 49521"
   935  0000                     TBLPTRL equ 0FF6h ;# 
   936                           opt subtitle "HI-TECH Software Omniscient Code Generator (Lite mode) build 49521"
   937  0000                     TBLPTRH equ 0FF7h ;# 
   938                           opt subtitle "HI-TECH Software Omniscient Code Generator (Lite mode) build 49521"
   939  0000                     TBLPTRU equ 0FF8h ;# 
   940                           opt subtitle "HI-TECH Software Omniscient Code Generator (Lite mode) build 49521"
   941  0000                     PCLAT equ 0FF9h ;# 
   942                           opt subtitle "HI-TECH Software Omniscient Code Generator (Lite mode) build 49521"
   943  0000                     PC equ 0FF9h ;# 
   944                           opt subtitle "HI-TECH Software Omniscient Code Generator (Lite mode) build 49521"
   945  0000                     PCL equ 0FF9h ;# 
   946                           opt subtitle "HI-TECH Software Omniscient Code Generator (Lite mode) build 49521"
   947  0000                     PCLATH equ 0FFAh ;# 
   948                           opt subtitle "HI-TECH Software Omniscient Code Generator (Lite mode) build 49521"
   949  0000                     PCLATU equ 0FFBh ;# 
   950                           opt subtitle "HI-TECH Software Omniscient Code Generator (Lite mode) build 49521"
   951  0000                     STKPTR equ 0FFCh ;# 
   952                           opt subtitle "HI-TECH Software Omniscient Code Generator (Lite mode) build 49521"
   953  0000                     TOS equ 0FFDh ;# 
   954                           opt subtitle "HI-TECH Software Omniscient Code Generator (Lite mode) build 49521"
   955  0000                     TOSL equ 0FFDh ;# 
   956                           opt subtitle "HI-TECH Software Omniscient Code Generator (Lite mode) build 49521"
   957  0000                     TOSH equ 0FFEh ;# 
   958                           opt subtitle "HI-TECH Software Omniscient Code Generator (Lite mode) build 49521"
   959  0000                     TOSU equ 0FFFh ;# 
   960                           opt subtitle "HI-TECH Software Omniscient Code Generator (Lite mode) build 49521"
   961                           
   962                           opt pagewidth 120
   963                           
   964                           	opt lm
   965                           
   966                           	processor	18LF14K22
   967                           porta	equ	0F80h
   968                           portb	equ	0F81h
   969                           portc	equ	0F82h
   970                           portd	equ	0F83h
   971                           porte	equ	0F84h
   972                           lata	equ	0F89h
   973                           latb	equ	0F8Ah
   974                           latc	equ	0F8Bh
   975                           latd	equ	0F8Ch
   976                           late	equ	0F8Dh
   977                           trisa	equ	0F92h
   978                           trisb	equ	0F93h
   979                           trisc	equ	0F94h
   980                           trisd	equ	0F95h
   981                           trise	equ	0F96h
   982                           pie1	equ	0F9Dh
   983                           pir1	equ	0F9Eh
   984                           ipr1	equ	0F9Fh
   985                           pie2	equ	0FA0h
   986                           pir2	equ	0FA1h
   987                           ipr2	equ	0FA2h
   988                           t3con	equ	0FB1h
   989                           tmr3l	equ	0FB2h
   990                           tmr3h	equ	0FB3h
   991                           ccp1con	equ	0FBDh
   992  00131C                     __pidataCOMRAM:
   993                           opt subtitle "HI-TECH Software Omniscient Code Generator (Lite mode) build 49521"
   994                           
   995                           opt pagewidth 120
   996                           
   997  00131C  0094               	dw	(_transmitData)&0ffffh
   998  00131E  0020               	dw	(020h)&0ffffh
   999  001320  0000               	dw	(0)&0ffffh
  1000  001322  0000               	dw	(0)&0ffffh
  1001                           opt subtitle "HI-TECH Software Omniscient Code Generator (Lite mode) build 49521"
  1002                           
  1003  0012EC                     __pidataBANK0:
  1004                           opt subtitle "HI-TECH Software Omniscient Code Generator (Lite mode) build 49521"
  1005                           
  1006                           opt pagewidth 120
  1007                           
  1008  0012EC  66                 	db	low(066h)
  1009  0012ED  00                 	db	low(0)
  1010  0012EE  6C                 	db	low(06Ch)
  1011  0012EF  44                 	db	low(044h)
  1012  0012F0  56                 	db	low(056h)
  1013  0012F1  66                 	db	low(066h)
  1014  0012F2  00                 	db	low(0)
  1015  0012F3  6C                 	db	low(06Ch)
  1016  0012F4  29                 	db	low(029h)
  1017  0012F5  C9                 	db	low(0C9h)
  1018  0012F6  66                 	db	low(066h)
  1019  0012F7  00                 	db	low(0)
  1020  0012F8  6C                 	db	low(06Ch)
  1021  0012F9  06                 	db	low(06h)
  1022  0012FA  AA                 	db	low(0AAh)
  1023  0012FB  66                 	db	low(066h)
  1024  0012FC  00                 	db	low(0)
  1025  0012FD  6B                 	db	low(06Bh)
  1026  0012FE  F6                 	db	low(0F6h)
  1027  0012FF  9B                 	db	low(09Bh)
  1028                           opt subtitle "HI-TECH Software Omniscient Code Generator (Lite mode) build 49521"
  1029                           
  1030                           opt pagewidth 120
  1031                           
  1032  001300  0074               	dw	(_receiveData)&0ffffh
  1033  001302  0020               	dw	(020h)&0ffffh
  1034  001304  0000               	dw	(0)&0ffffh
  1035  001306  0000               	dw	(0)&0ffffh
  1036                           opt subtitle "HI-TECH Software Omniscient Code Generator (Lite mode) build 49521"
  1037                           
  1038                           opt pagewidth 120
  1039  000230                     __psmallconst:
  1040                           opt subtitle "HI-TECH Software Omniscient Code Generator (Lite mode) build 49521"
  1041                           
  1042  000230                     _crlfetx_str:
  1043  000230  0A                 	db	low(0Ah)
  1044  000231  0D                 	db	low(0Dh)
  1045  000232  03                 	db	low(03h)
  1046  000233  00                 	db	low(0)
  1047                           opt subtitle "HI-TECH Software Omniscient Code Generator (Lite mode) build 49521"
  1048  000234                     __end_of_crlfetx_str:
  1049                           opt subtitle "HI-TECH Software Omniscient Code Generator (Lite mode) build 49521"
  1050                           
  1051                           opt pagewidth 120
  1052                           
  1053  000234                     main@motor_pins:
  1054  000234  0F8B               	dw	((c:3979))&0ffffh	;volatile
  1055  000236  04                 	db	low(04h)
  1056  000237  0F8B               	dw	((c:3979))&0ffffh	;volatile
  1057  000239  05                 	db	low(05h)
  1058  00023A  0F8B               	dw	((c:3979))&0ffffh	;volatile
  1059  00023C  06                 	db	low(06h)
  1060  00023D  0F8B               	dw	((c:3979))&0ffffh	;volatile
  1061  00023F  07                 	db	low(07h)
  1062                           opt subtitle "HI-TECH Software Omniscient Code Generator (Lite mode) build 49521"
  1063  000240                     __end_ofmain@motor_pins:
  1064                           opt subtitle "HI-TECH Software Omniscient Code Generator (Lite mode) build 49521"
  1065                           
  1066                           opt pagewidth 120
  1067                           
  1068                           	opt lm
  1069                           
  1070                           	processor	18LF14K22
  1071                           porta	equ	0F80h
  1072                           portb	equ	0F81h
  1073                           portc	equ	0F82h
  1074                           portd	equ	0F83h
  1075                           porte	equ	0F84h
  1076                           lata	equ	0F89h
  1077                           latb	equ	0F8Ah
  1078                           latc	equ	0F8Bh
  1079                           latd	equ	0F8Ch
  1080                           late	equ	0F8Dh
  1081                           trisa	equ	0F92h
  1082                           trisb	equ	0F93h
  1083                           trisc	equ	0F94h
  1084                           trisd	equ	0F95h
  1085                           trise	equ	0F96h
  1086  0000                     _TMR0	set	0xFD6
  1087                           opt subtitle "HI-TECH Software Omniscient Code Generator (Lite mode) build 49521"
  1088  0000                     _TMR1	set	0xFCE
  1089                           opt subtitle "HI-TECH Software Omniscient Code Generator (Lite mode) build 49521"
  1090  0000                     _ANSEL	set	0xF7E
  1091                           opt subtitle "HI-TECH Software Omniscient Code Generator (Lite mode) build 49521"
  1092  0000                     _ANSELH	set	0xF7F
  1093                           opt subtitle "HI-TECH Software Omniscient Code Generator (Lite mode) build 49521"
  1094  0000                     _BAUDCONbits	set	0xFB8
  1095                           opt subtitle "HI-TECH Software Omniscient Code Generator (Lite mode) build 49521"
  1096  0000                     _CCP1CONbits	set	0xFBD
  1097                           opt subtitle "HI-TECH Software Omniscient Code Generator (Lite mode) build 49521"
  1098  0000                     _INTCONbits	set	0xFF2
  1099                           opt subtitle "HI-TECH Software Omniscient Code Generator (Lite mode) build 49521"
  1100  0000                     _OSCCONbits	set	0xFD3
  1101                           opt subtitle "HI-TECH Software Omniscient Code Generator (Lite mode) build 49521"
  1102  0000                     _PIE1bits	set	0xF9D
  1103                           opt subtitle "HI-TECH Software Omniscient Code Generator (Lite mode) build 49521"
  1104  0000                     _PIR1bits	set	0xF9E
  1105                           opt subtitle "HI-TECH Software Omniscient Code Generator (Lite mode) build 49521"
  1106  0000                     _RCON	set	0xFD0
  1107                           opt subtitle "HI-TECH Software Omniscient Code Generator (Lite mode) build 49521"
  1108  0000                     _RCONbits	set	0xFD0
  1109                           opt subtitle "HI-TECH Software Omniscient Code Generator (Lite mode) build 49521"
  1110  0000                     _RCREG	set	0xFAE
  1111                           opt subtitle "HI-TECH Software Omniscient Code Generator (Lite mode) build 49521"
  1112  0000                     _RCSTAbits	set	0xFAB
  1113                           opt subtitle "HI-TECH Software Omniscient Code Generator (Lite mode) build 49521"
  1114  0000                     _SPBRG	set	0xFAF
  1115                           opt subtitle "HI-TECH Software Omniscient Code Generator (Lite mode) build 49521"
  1116  0000                     _T0CONbits	set	0xFD5
  1117                           opt subtitle "HI-TECH Software Omniscient Code Generator (Lite mode) build 49521"
  1118  0000                     _T1CONbits	set	0xFCD
  1119                           opt subtitle "HI-TECH Software Omniscient Code Generator (Lite mode) build 49521"
  1120  0000                     _TRISBbits	set	0xF93
  1121                           opt subtitle "HI-TECH Software Omniscient Code Generator (Lite mode) build 49521"
  1122  0000                     _TRISC	set	0xF94
  1123                           opt subtitle "HI-TECH Software Omniscient Code Generator (Lite mode) build 49521"
  1124  0000                     _TXREG	set	0xFAD
  1125                           opt subtitle "HI-TECH Software Omniscient Code Generator (Lite mode) build 49521"
  1126  0000                     _TXSTAbits	set	0xFAC
  1127                           opt subtitle "HI-TECH Software Omniscient Code Generator (Lite mode) build 49521"
  1128  0000                     _LATC	set	0xF8B
  1129                           opt subtitle "HI-TECH Software Omniscient Code Generator (Lite mode) build 49521"
  1130  000240                     __stringdata:
  1131                           opt subtitle "HI-TECH Software Omniscient Code Generator (Lite mode) build 49521"
  1132  000240                     STR_2:
  1133  000240  6B                 	db	107	;'k'
  1134  000241  65                 	db	101	;'e'
  1135  000242  79                 	db	121	;'y'
  1136  000243  6E                 	db	110	;'n'
  1137  000244  75                 	db	117	;'u'
  1138  000245  6D                 	db	109	;'m'
  1139  000246  20                 	db	32
  1140  000247  3D                 	db	61	;'='
  1141  000248  20                 	db	32
  1142  000249  00                 	db	0
  1143                           opt subtitle "HI-TECH Software Omniscient Code Generator (Lite mode) build 49521"
  1144  00024A                     STR_1:
  1145  00024A  52                 	db	82	;'R'
  1146  00024B  43                 	db	67	;'C'
  1147  00024C  4F                 	db	79	;'O'
  1148  00024D  4E                 	db	78	;'N'
  1149  00024E  20                 	db	32
  1150  00024F  3D                 	db	61	;'='
  1151  000250  20                 	db	32
  1152  000251  00                 	db	0
  1153  0000                     STR_3	equ	STR_1+6
  1154                           opt subtitle "HI-TECH Software Omniscient Code Generator (Lite mode) build 49521"
  1155  000252                     __end_of__stringdata:
  1156                           opt subtitle "HI-TECH Software Omniscient Code Generator (Lite mode) build 49521"
  1157                           
  1158  0000                     __CFG_IESO$OFF equ 0x0
  1159                           opt subtitle "HI-TECH Software Omniscient Code Generator (Lite mode) build 49521"
  1160  0000                     __CFG_PLLEN$OFF equ 0x0
  1161                           opt subtitle "HI-TECH Software Omniscient Code Generator (Lite mode) build 49521"
  1162  0000                     __CFG_FOSC$IRC equ 0x0
  1163                           opt subtitle "HI-TECH Software Omniscient Code Generator (Lite mode) build 49521"
  1164  0000                     __CFG_FCMEN$OFF equ 0x0
  1165                           opt subtitle "HI-TECH Software Omniscient Code Generator (Lite mode) build 49521"
  1166  0000                     __CFG_PCLKEN$OFF equ 0x0
  1167                           opt subtitle "HI-TECH Software Omniscient Code Generator (Lite mode) build 49521"
  1168  0000                     __CFG_BOREN$SBORDIS equ 0x0
  1169                           opt subtitle "HI-TECH Software Omniscient Code Generator (Lite mode) build 49521"
  1170  0000                     __CFG_BORV$19 equ 0x0
  1171                           opt subtitle "HI-TECH Software Omniscient Code Generator (Lite mode) build 49521"
  1172  0000                     __CFG_PWRTEN$OFF equ 0x0
  1173                           opt subtitle "HI-TECH Software Omniscient Code Generator (Lite mode) build 49521"
  1174  0000                     __CFG_WDTPS$32768 equ 0x0
  1175                           opt subtitle "HI-TECH Software Omniscient Code Generator (Lite mode) build 49521"
  1176  0000                     __CFG_WDTEN$OFF equ 0x0
  1177                           opt subtitle "HI-TECH Software Omniscient Code Generator (Lite mode) build 49521"
  1178  0000                     __CFG_MCLRE$ON equ 0x0
  1179                           opt subtitle "HI-TECH Software Omniscient Code Generator (Lite mode) build 49521"
  1180  0000                     __CFG_HFOFST$OFF equ 0x0
  1181                           opt subtitle "HI-TECH Software Omniscient Code Generator (Lite mode) build 49521"
  1182  0000                     __CFG_STVREN$ON equ 0x0
  1183                           opt subtitle "HI-TECH Software Omniscient Code Generator (Lite mode) build 49521"
  1184  0000                     __CFG_XINST$OFF equ 0x0
  1185                           opt subtitle "HI-TECH Software Omniscient Code Generator (Lite mode) build 49521"
  1186  0000                     __CFG_BBSIZ$OFF equ 0x0
  1187                           opt subtitle "HI-TECH Software Omniscient Code Generator (Lite mode) build 49521"
  1188  0000                     __CFG_LVP$OFF equ 0x0
  1189                           opt subtitle "HI-TECH Software Omniscient Code Generator (Lite mode) build 49521"
  1190  0000                     __CFG_CP0$OFF equ 0x0
  1191                           opt subtitle "HI-TECH Software Omniscient Code Generator (Lite mode) build 49521"
  1192  0000                     __CFG_CP1$OFF equ 0x0
  1193                           opt subtitle "HI-TECH Software Omniscient Code Generator (Lite mode) build 49521"
  1194  0000                     __CFG_CPD$OFF equ 0x0
  1195                           opt subtitle "HI-TECH Software Omniscient Code Generator (Lite mode) build 49521"
  1196  0000                     __CFG_CPB$OFF equ 0x0
  1197                           opt subtitle "HI-TECH Software Omniscient Code Generator (Lite mode) build 49521"
  1198  0000                     __CFG_WRT0$OFF equ 0x0
  1199                           opt subtitle "HI-TECH Software Omniscient Code Generator (Lite mode) build 49521"
  1200  0000                     __CFG_WRT1$OFF equ 0x0
  1201                           opt subtitle "HI-TECH Software Omniscient Code Generator (Lite mode) build 49521"
  1202  0000                     __CFG_WRTB$OFF equ 0x0
  1203                           opt subtitle "HI-TECH Software Omniscient Code Generator (Lite mode) build 49521"
  1204  0000                     __CFG_WRTC$OFF equ 0x0
  1205                           opt subtitle "HI-TECH Software Omniscient Code Generator (Lite mode) build 49521"
  1206  0000                     __CFG_WRTD$OFF equ 0x0
  1207                           opt subtitle "HI-TECH Software Omniscient Code Generator (Lite mode) build 49521"
  1208  0000                     __CFG_EBTR0$OFF equ 0x0
  1209                           opt subtitle "HI-TECH Software Omniscient Code Generator (Lite mode) build 49521"
  1210  0000                     __CFG_EBTR1$OFF equ 0x0
  1211                           opt subtitle "HI-TECH Software Omniscient Code Generator (Lite mode) build 49521"
  1212  0000                     __CFG_EBTRB$OFF equ 0x0
  1213                           opt subtitle "HI-TECH Software Omniscient Code Generator (Lite mode) build 49521"
  1214                           
  1215                           opt pagewidth 120
  1216                           
  1217  00119E                     __pcinit:
  1218                           opt subtitle "HI-TECH Software Omniscient Code Generator (Lite mode) build 49521"
  1219  00119E                     start_initialization:
  1220                           opt subtitle "HI-TECH Software Omniscient Code Generator (Lite mode) build 49521"
  1221                           
  1222  00119E                     __initialization:
  1223                           opt subtitle "HI-TECH Software Omniscient Code Generator (Lite mode) build 49521"
  1224                           
  1225  000021                     __pbssCOMRAM:
  1226                           opt subtitle "HI-TECH Software Omniscient Code Generator (Lite mode) build 49521"
  1227  000021                     _motor_pins:
  1228  000021                            ds      12
  1229  00002D                     _speed:
  1230  00002D                            ds      2
  1231  00002F                     _stepsToGo:
  1232  00002F                            ds      2
  1233  000031                     _currentStep:
  1234  000031                            ds      1
  1235  000032                     _direction:
  1236  000032                            ds      1
  1237                           opt subtitle "HI-TECH Software Omniscient Code Generator (Lite mode) build 49521"
  1238                           
  1239  000033                     _keyNameIndex:
  1240  000033                            ds      1
  1241                           opt subtitle "HI-TECH Software Omniscient Code Generator (Lite mode) build 49521"
  1242  000034                     _previousDirection:
  1243  000034                            ds      1
  1244  000035                     isr@calcd_checksum:
  1245  000035                            ds      1
  1246  000036                     isr@checksum:
  1247  000036                            ds      1
  1248  000037                     isr@field_count:
  1249  000037                            ds      1
  1250  000038                     isr@key_name_index:
  1251  000038                            ds      1
  1252  000039                     isr@msb_lsb:
  1253  000039                            ds      1
  1254  00003A                     isr@read_byte:
  1255  00003A                            ds      1
  1256  00003B                     isr@read_state:
  1257  00003B                            ds      1
  1258                           opt subtitle "HI-TECH Software Omniscient Code Generator (Lite mode) build 49521"
  1259                           
  1260  00003C                     __pdataCOMRAM:
  1261                           opt subtitle "HI-TECH Software Omniscient Code Generator (Lite mode) build 49521"
  1262                           
  1263                           opt pagewidth 120
  1264  00003C                     _transmitBuffer:
  1265  00003C                            ds      8
  1266                           opt subtitle "HI-TECH Software Omniscient Code Generator (Lite mode) build 49521"
  1267                           
  1268  000060                     __pbssBANK0:
  1269                           opt subtitle "HI-TECH Software Omniscient Code Generator (Lite mode) build 49521"
  1270                           
  1271  000060                     _num:
  1272  000060                            ds      10
  1273                           opt subtitle "HI-TECH Software Omniscient Code Generator (Lite mode) build 49521"
  1274  00006A                     _doorOpenTime:
  1275  00006A                            ds      4
  1276                           opt subtitle "HI-TECH Software Omniscient Code Generator (Lite mode) build 49521"
  1277  00006E                     _sysTick:
  1278  00006E                            ds      4
  1279                           opt subtitle "HI-TECH Software Omniscient Code Generator (Lite mode) build 49521"
  1280  000072                     _currentDoor:
  1281  000072                            ds      1
  1282                           opt subtitle "HI-TECH Software Omniscient Code Generator (Lite mode) build 49521"
  1283  000073                     _keyReadyFlag:
  1284  000073                            ds      1
  1285                           opt subtitle "HI-TECH Software Omniscient Code Generator (Lite mode) build 49521"
  1286  000074                     _receiveData:
  1287  000074                            ds      32
  1288                           opt subtitle "HI-TECH Software Omniscient Code Generator (Lite mode) build 49521"
  1289  000094                     _transmitData:
  1290  000094                            ds      32
  1291                           opt subtitle "HI-TECH Software Omniscient Code Generator (Lite mode) build 49521"
  1292  0000B4                     _keyName:
  1293  0000B4                            ds      6
  1294                           opt subtitle "HI-TECH Software Omniscient Code Generator (Lite mode) build 49521"
  1295                           
  1296  0000E1                     __pdataBANK0:
  1297                           opt subtitle "HI-TECH Software Omniscient Code Generator (Lite mode) build 49521"
  1298                           
  1299                           opt pagewidth 120
  1300  0000E1                     _allowedKeys:
  1301  0000E1                            ds      20
  1302                           opt subtitle "HI-TECH Software Omniscient Code Generator (Lite mode) build 49521"
  1303                           
  1304                           opt pagewidth 120
  1305                           
  1306  0000F5                     _receiveBuffer:
  1307  0000F5                            ds      8
  1308                           opt subtitle "HI-TECH Software Omniscient Code Generator (Lite mode) build 49521"
  1309                           
  1310                           opt pagewidth 120
  1311  00119E  EE00  F060         lfsr	0,__pbssBANK0
  1312  0011A2  0E5A               movlw	90
  1313  0011A4                     clear_0:
  1314  0011A4  6AEE               clrf	postinc0,c
  1315  0011A6  06E8               decf	wreg
  1316  0011A8  E1FD               bnz	clear_0
  1317                           opt subtitle "HI-TECH Software Omniscient Code Generator (Lite mode) build 49521"
  1318                           
  1319  0011AA  EE00  F021         lfsr	0,__pbssCOMRAM
  1320  0011AE  0E1B               movlw	27
  1321  0011B0                     clear_1:
  1322  0011B0  6AEE               clrf	postinc0,c
  1323  0011B2  06E8               decf	wreg
  1324  0011B4  E1FD               bnz	clear_1
  1325                           opt subtitle "HI-TECH Software Omniscient Code Generator (Lite mode) build 49521"
  1326                           
  1327                           opt pagewidth 120
  1328  0011B6  0EEC               	movlw	low (__pidataBANK0)
  1329  0011B8  6EF6               	movwf	tblptrl
  1330  0011BA  0E12               	movlw	high(__pidataBANK0)
  1331  0011BC  6EF7               	movwf	tblptrh
  1332  0011BE  0E00               	movlw	low highword(__pidataBANK0)
  1333  0011C0  6EF8               	movwf	tblptru
  1334  0011C2  EE00  F0E1         	lfsr	0,__pdataBANK0
  1335  0011C6  EE10 F01C          	lfsr	1,28
  1336  0011CA                     	copy_data0:
  1337  0011CA  0009               	tblrd	*+
  1338  0011CC  CFF5 FFEE          	movff	tablat, postinc0
  1339  0011D0  50E5               	movf	postdec1,w
  1340  0011D2  50E1               	movf	fsr1l,w
  1341  0011D4  E1FA               	bnz	copy_data0
  1342                           opt subtitle "HI-TECH Software Omniscient Code Generator (Lite mode) build 49521"
  1343                           
  1344                           opt pagewidth 120
  1345  0011D6  0E1C               	movlw	low (__pidataCOMRAM)
  1346  0011D8  6EF6               	movwf	tblptrl
  1347  0011DA  0E13               	movlw	high(__pidataCOMRAM)
  1348  0011DC  6EF7               	movwf	tblptrh
  1349  0011DE  0E00               	movlw	low highword(__pidataCOMRAM)
  1350  0011E0  6EF8               	movwf	tblptru
  1351  0011E2  EE00  F03C         	lfsr	0,__pdataCOMRAM
  1352  0011E6  EE10 F008          	lfsr	1,8
  1353  0011EA                     	copy_data1:
  1354  0011EA  0009               	tblrd	*+
  1355  0011EC  CFF5 FFEE          	movff	tablat, postinc0
  1356  0011F0  50E5               	movf	postdec1,w
  1357  0011F2  50E1               	movf	fsr1l,w
  1358  0011F4  E1FA               	bnz	copy_data1
  1359                           opt subtitle "HI-TECH Software Omniscient Code Generator (Lite mode) build 49521"
  1360                           
  1361                           opt pagewidth 120
  1362                           
  1363                           	opt lm
  1364  0011F6                     end_of_initialization:
  1365  0011F6                     __end_of__initialization:	GLOBAL	__Lmediumconst
  1366  0011F6  0E00               	movlw	low highword(__Lmediumconst)
  1367  0011F8  6EF8               	movwf	tblptru
  1368  0011FA  0100               movlb 0
  1369  0011FC  EF2A  F001         goto _main	;jump to C main() function
  1370                           opt subtitle "HI-TECH Software Omniscient Code Generator (Lite mode) build 49521"
  1371                           
  1372  0000BA                     __pcstackBANK0:
  1373  0000BA                     ??_initUART:	; 0 bytes @ 0x0
  1374                           opt subtitle "HI-TECH Software Omniscient Code Generator (Lite mode) build 49521"
  1375  0000BA                     ?_initStepperMotor:	; 0 bytes @ 0x0
  1376                           opt subtitle "HI-TECH Software Omniscient Code Generator (Lite mode) build 49521"
  1377  0000BA                     ?_startStepperMotor:	; 0 bytes @ 0x0
  1378  0000BA                     ??_stepperMotorFinished:	; 0 bytes @ 0x0
  1379  0000BA                     ??_release_stepper_motor:	; 0 bytes @ 0x0
  1380                           opt subtitle "HI-TECH Software Omniscient Code Generator (Lite mode) build 49521"
  1381  0000BA                     ?_circularBufferFull:	; 1 bytes @ 0x0
  1382                           opt subtitle "HI-TECH Software Omniscient Code Generator (Lite mode) build 49521"
  1383  0000BA                     ?___wmul:	; 2 bytes @ 0x0
  1384                           opt subtitle "HI-TECH Software Omniscient Code Generator (Lite mode) build 49521"
  1385  0000BA                     initStepperMotor@motor_pins_in:	; 2 bytes @ 0x0
  1386                           opt subtitle "HI-TECH Software Omniscient Code Generator (Lite mode) build 49521"
  1387  0000BA                     startStepperMotor@distance:	; 2 bytes @ 0x0
  1388                           opt subtitle "HI-TECH Software Omniscient Code Generator (Lite mode) build 49521"
  1389  0000BA                     circularBufferFull@buf:	; 2 bytes @ 0x0
  1390                           opt subtitle "HI-TECH Software Omniscient Code Generator (Lite mode) build 49521"
  1391  0000BA                     ___wmul@multiplier:	; 2 bytes @ 0x0
  1392  0000BA                     	ds   2
  1393  0000BC                     ??_initStepperMotor:	; 0 bytes @ 0x2
  1394  0000BC                     ??_circularBufferFull:	; 0 bytes @ 0x2
  1395                           opt subtitle "HI-TECH Software Omniscient Code Generator (Lite mode) build 49521"
  1396  0000BC                     startStepperMotor@dir:	; 1 bytes @ 0x2
  1397                           opt subtitle "HI-TECH Software Omniscient Code Generator (Lite mode) build 49521"
  1398  0000BC                     circularBufferFull@headTemp:	; 2 bytes @ 0x2
  1399                           opt subtitle "HI-TECH Software Omniscient Code Generator (Lite mode) build 49521"
  1400  0000BC                     ___wmul@multiplicand:	; 2 bytes @ 0x2
  1401  0000BC                     	ds   1
  1402                           opt subtitle "HI-TECH Software Omniscient Code Generator (Lite mode) build 49521"
  1403  0000BD                     startStepperMotor@targetSpeed:	; 2 bytes @ 0x3
  1404  0000BD                     	ds   1
  1405                           opt subtitle "HI-TECH Software Omniscient Code Generator (Lite mode) build 49521"
  1406  0000BE                     ?_writeCircularBuffer:	; 0 bytes @ 0x4
  1407  0000BE                     ??___wmul:	; 0 bytes @ 0x4
  1408                           opt subtitle "HI-TECH Software Omniscient Code Generator (Lite mode) build 49521"
  1409  0000BE                     writeCircularBuffer@buf:	; 2 bytes @ 0x4
  1410                           opt subtitle "HI-TECH Software Omniscient Code Generator (Lite mode) build 49521"
  1411  0000BE                     ___wmul@product:	; 2 bytes @ 0x4
  1412  0000BE                     	ds   1
  1413  0000BF                     ??_startStepperMotor:	; 0 bytes @ 0x5
  1414  0000BF                     	ds   1
  1415                           opt subtitle "HI-TECH Software Omniscient Code Generator (Lite mode) build 49521"
  1416  0000C0                     writeCircularBuffer@data:	; 1 bytes @ 0x6
  1417  0000C0                     	ds   1
  1418                           opt subtitle "HI-TECH Software Omniscient Code Generator (Lite mode) build 49521"
  1419  0000C1                     writeCircularBuffer@error:	; 2 bytes @ 0x7
  1420  0000C1                     	ds   2
  1421  0000C3                     ??_writeCircularBuffer:	; 0 bytes @ 0x9
  1422  0000C3                     	ds   4
  1423                           opt subtitle "HI-TECH Software Omniscient Code Generator (Lite mode) build 49521"
  1424  0000C7                     ?_writeUARTMessage:	; 0 bytes @ 0xD
  1425                           opt subtitle "HI-TECH Software Omniscient Code Generator (Lite mode) build 49521"
  1426  0000C7                     ?_writeUART:	; 0 bytes @ 0xD
  1427                           opt subtitle "HI-TECH Software Omniscient Code Generator (Lite mode) build 49521"
  1428  0000C7                     writeUART@data:	; 1 bytes @ 0xD
  1429                           opt subtitle "HI-TECH Software Omniscient Code Generator (Lite mode) build 49521"
  1430  0000C7                     writeUARTMessage@msg:	; 2 bytes @ 0xD
  1431  0000C7                     	ds   1
  1432                           opt subtitle "HI-TECH Software Omniscient Code Generator (Lite mode) build 49521"
  1433  0000C8                     writeUART@error:	; 2 bytes @ 0xE
  1434  0000C8                     	ds   1
  1435                           opt subtitle "HI-TECH Software Omniscient Code Generator (Lite mode) build 49521"
  1436  0000C9                     writeUARTMessage@error:	; 2 bytes @ 0xF
  1437  0000C9                     	ds   1
  1438  0000CA                     ??_writeUART:	; 0 bytes @ 0x10
  1439                           opt subtitle "HI-TECH Software Omniscient Code Generator (Lite mode) build 49521"
  1440  0000CA                     writeUART@e:	; 1 bytes @ 0x10
  1441  0000CA                     	ds   1
  1442  0000CB                     ??_writeUARTMessage:	; 0 bytes @ 0x11
  1443                           opt subtitle "HI-TECH Software Omniscient Code Generator (Lite mode) build 49521"
  1444  0000CB                     writeUARTMessage@i:	; 2 bytes @ 0x11
  1445  0000CB                     	ds   2
  1446                           opt subtitle "HI-TECH Software Omniscient Code Generator (Lite mode) build 49521"
  1447  0000CD                     writeUARTMessage@e:	; 1 bytes @ 0x13
  1448  0000CD                     	ds   1
  1449  0000CE                     ??_main:	; 0 bytes @ 0x14
  1450  0000CE                     	ds   8
  1451                           opt subtitle "HI-TECH Software Omniscient Code Generator (Lite mode) build 49521"
  1452  0000D6                     main@wait:	; 4 bytes @ 0x1C
  1453  0000D6                     	ds   4
  1454                           opt subtitle "HI-TECH Software Omniscient Code Generator (Lite mode) build 49521"
  1455  0000DA                     main@keyGood:	; 1 bytes @ 0x20
  1456  0000DA                     	ds   1
  1457                           opt subtitle "HI-TECH Software Omniscient Code Generator (Lite mode) build 49521"
  1458  0000DB                     main@e:	; 1 bytes @ 0x21
  1459  0000DB                     	ds   1
  1460                           opt subtitle "HI-TECH Software Omniscient Code Generator (Lite mode) build 49521"
  1461  0000DC                     main@i:	; 2 bytes @ 0x22
  1462  0000DC                     	ds   2
  1463                           opt subtitle "HI-TECH Software Omniscient Code Generator (Lite mode) build 49521"
  1464  0000DE                     main@UARTErrorCode:	; 1 bytes @ 0x24
  1465  0000DE                     	ds   1
  1466                           opt subtitle "HI-TECH Software Omniscient Code Generator (Lite mode) build 49521"
  1467  0000DF                     main@j:	; 2 bytes @ 0x25
  1468  0000DF                     	ds   2
  1469                           opt subtitle "HI-TECH Software Omniscient Code Generator (Lite mode) build 49521"
  1470                           
  1471  000001                     __pcstackCOMRAM:
  1472  000001                     ?_UARTISR:	; 0 bytes @ 0x0
  1473  000001                     ?_STEPPERISR:	; 0 bytes @ 0x0
  1474  000001                     ??_STEPPERISR:	; 0 bytes @ 0x0
  1475  000001                     ?_initUART:	; 0 bytes @ 0x0
  1476  000001                     ?_release_stepper_motor:	; 0 bytes @ 0x0
  1477  000001                     ?_isr:	; 0 bytes @ 0x0
  1478  000001                     ?_main:	; 0 bytes @ 0x0
  1479  000001                     ?_stepperMotorFinished:	; 1 bytes @ 0x0
  1480                           opt subtitle "HI-TECH Software Omniscient Code Generator (Lite mode) build 49521"
  1481  000001                     ?_circularBufferEmpty:	; 1 bytes @ 0x0
  1482                           opt subtitle "HI-TECH Software Omniscient Code Generator (Lite mode) build 49521"
  1483  000001                     ?i2_circularBufferFull:	; 1 bytes @ 0x0
  1484                           opt subtitle "HI-TECH Software Omniscient Code Generator (Lite mode) build 49521"
  1485  000001                     ?_asciiDigitToInt:	; 2 bytes @ 0x0
  1486                           opt subtitle "HI-TECH Software Omniscient Code Generator (Lite mode) build 49521"
  1487  000001                     asciiDigitToInt@c:	; 1 bytes @ 0x0
  1488                           opt subtitle "HI-TECH Software Omniscient Code Generator (Lite mode) build 49521"
  1489  000001                     circularBufferEmpty@buf:	; 2 bytes @ 0x0
  1490                           opt subtitle "HI-TECH Software Omniscient Code Generator (Lite mode) build 49521"
  1491  000001                     i2circularBufferFull@buf:	; 2 bytes @ 0x0
  1492  000001                     	ds   2
  1493  000003                     ??_circularBufferEmpty:	; 0 bytes @ 0x2
  1494  000003                     ??_asciiDigitToInt:	; 0 bytes @ 0x2
  1495  000003                     ??i2_circularBufferFull:	; 0 bytes @ 0x2
  1496                           opt subtitle "HI-TECH Software Omniscient Code Generator (Lite mode) build 49521"
  1497  000003                     ?_readCircularBuffer:	; 1 bytes @ 0x2
  1498                           opt subtitle "HI-TECH Software Omniscient Code Generator (Lite mode) build 49521"
  1499  000003                     readCircularBuffer@buf:	; 2 bytes @ 0x2
  1500                           opt subtitle "HI-TECH Software Omniscient Code Generator (Lite mode) build 49521"
  1501  000003                     i2circularBufferFull@headTemp:	; 2 bytes @ 0x2
  1502  000003                     	ds   2
  1503                           opt subtitle "HI-TECH Software Omniscient Code Generator (Lite mode) build 49521"
  1504  000005                     ?i2_writeCircularBuffer:	; 0 bytes @ 0x4
  1505                           opt subtitle "HI-TECH Software Omniscient Code Generator (Lite mode) build 49521"
  1506  000005                     readCircularBuffer@error:	; 2 bytes @ 0x4
  1507                           opt subtitle "HI-TECH Software Omniscient Code Generator (Lite mode) build 49521"
  1508  000005                     i2writeCircularBuffer@buf:	; 2 bytes @ 0x4
  1509  000005                     	ds   2
  1510  000007                     ??_readCircularBuffer:	; 0 bytes @ 0x6
  1511                           opt subtitle "HI-TECH Software Omniscient Code Generator (Lite mode) build 49521"
  1512  000007                     i2writeCircularBuffer@data:	; 1 bytes @ 0x6
  1513  000007                     	ds   1
  1514                           opt subtitle "HI-TECH Software Omniscient Code Generator (Lite mode) build 49521"
  1515  000008                     i2writeCircularBuffer@error:	; 2 bytes @ 0x7
  1516  000008                     	ds   2
  1517  00000A                     ??i2_writeCircularBuffer:	; 0 bytes @ 0x9
  1518  00000A                     	ds   1
  1519                           opt subtitle "HI-TECH Software Omniscient Code Generator (Lite mode) build 49521"
  1520  00000B                     readCircularBuffer@temp:	; 1 bytes @ 0xA
  1521  00000B                     	ds   1
  1522                           opt subtitle "HI-TECH Software Omniscient Code Generator (Lite mode) build 49521"
  1523  00000C                     ?_readUART:	; 1 bytes @ 0xB
  1524                           opt subtitle "HI-TECH Software Omniscient Code Generator (Lite mode) build 49521"
  1525  00000C                     readUART@error:	; 2 bytes @ 0xB
  1526  00000C                     	ds   2
  1527  00000E                     ??_UARTISR:	; 0 bytes @ 0xD
  1528  00000E                     ??_readUART:	; 0 bytes @ 0xD
  1529                           opt subtitle "HI-TECH Software Omniscient Code Generator (Lite mode) build 49521"
  1530  00000E                     readUART@ret:	; 1 bytes @ 0xD
  1531                           opt subtitle "HI-TECH Software Omniscient Code Generator (Lite mode) build 49521"
  1532  00000E                     UARTISR@e:	; 1 bytes @ 0xD
  1533  00000E                     	ds   1
  1534                           opt subtitle "HI-TECH Software Omniscient Code Generator (Lite mode) build 49521"
  1535  00000F                     readUART@e:	; 1 bytes @ 0xE
  1536                           opt subtitle "HI-TECH Software Omniscient Code Generator (Lite mode) build 49521"
  1537  00000F                     UARTISR@e_809:	; 1 bytes @ 0xE
  1538  00000F                     	ds   1
  1539  000010                     ??_isr:	; 0 bytes @ 0xF
  1540  000010                     	ds   15
  1541                           opt subtitle "HI-TECH Software Omniscient Code Generator (Lite mode) build 49521"
  1542  00001F                     isr@e:	; 1 bytes @ 0x1E
  1543  00001F                     	ds   1
  1544                           opt subtitle "HI-TECH Software Omniscient Code Generator (Lite mode) build 49521"
  1545  000020                     isr@readVal:	; 1 bytes @ 0x1F
  1546  000020                     	ds   1
  1547                           opt subtitle "HI-TECH Software Omniscient Code Generator (Lite mode) build 49521"
  1548                           
  1549                           opt pagewidth 120
  1550                           
  1551                           	opt lm
  1552                           
  1553                           	processor	18LF14K22
  1554                           porta	equ	0F80h
  1555                           portb	equ	0F81h
  1556                           portc	equ	0F82h
  1557                           portd	equ	0F83h
  1558                           porte	equ	0F84h
  1559                           lata	equ	0F89h
  1560                           latb	equ	0F8Ah
  1561                           latc	equ	0F8Bh
  1562                           latd	equ	0F8Ch
  1563                           late	equ	0F8Dh
  1564                           trisa	equ	0F92h
  1565                           trisb	equ	0F93h
  1566                           trisc	equ	0F94h
  1567                           trisd	equ	0F95h
  1568                           trise	equ	0F96h
  1569                           pie1	equ	0F9Dh
  1570                           pir1	equ	0F9Eh
  1571                           ipr1	equ	0F9Fh
  1572                           pie2	equ	0FA0h
  1573                           pir2	equ	0FA1h
  1574                           ipr2	equ	0FA2h
  1575                           t3con	equ	0FB1h
  1576                           tmr3l	equ	0FB2h
  1577                           tmr3h	equ	0FB3h
  1578                           ccp1con	equ	0FBDh
  1579                           ccpr1l	equ	0FBEh
  1580                           ccpr1h	equ	0FBFh
  1581                           adcon1	equ	0FC1h
  1582                           adcon0	equ	0FC2h
  1583                           adresl	equ	0FC3h
  1584                           adresh	equ	0FC4h
  1585                           sspcon2	equ	0FC5h
  1586                           sspcon1	equ	0FC6h
  1587                           sspstat	equ	0FC7h
  1588                           sspadd	equ	0FC8h
  1589                           sspbuf	equ	0FC9h
  1590                           t2con	equ	0FCAh
  1591                           pr2	equ	0FCBh
  1592                           tmr2	equ	0FCCh
  1593                           t1con	equ	0FCDh
  1594                           tmr1l	equ	0FCEh
  1595                           tmr1h	equ	0FCFh
  1596                           rcon	equ	0FD0h
  1597                           wdtcon	equ	0FD1h
  1598                           lvdcon	equ	0FD2h
  1599                           osccon	equ	0FD3h
  1600                           t0con	equ	0FD5h
  1601                           tmr0l	equ	0FD6h
  1602                           tmr0h	equ	0FD7h
  1603                           status	equ	0FD8h
  1604                           fsr2	equ	0FD9h
  1605                           fsr2l	equ	0FD9h
  1606                           fsr2h	equ	0FDAh
  1607                           plusw2	equ	0FDBh
  1608                           preinc2	equ	0FDCh
  1609                           postdec2	equ	0FDDh
  1610                           postinc2	equ	0FDEh
  1611                           indf2	equ	0FDFh
  1612                           bsr	equ	0FE0h
  1613                           fsr1	equ	0FE1h
  1614                           fsr1l	equ	0FE1h
  1615                           fsr1h	equ	0FE2h
  1616                           plusw1	equ	0FE3h
  1617                           preinc1	equ	0FE4h
  1618                           postdec1	equ	0FE5h
  1619                           postinc1	equ	0FE6h
  1620                           indf1	equ	0FE7h
  1621                           wreg	equ	0FE8h
  1622                           fsr0	equ	0FE9h
  1623                           fsr0l	equ	0FE9h
  1624                           fsr0h	equ	0FEAh
  1625                           plusw0	equ	0FEBh
  1626                           preinc0	equ	0FECh
  1627                           postdec0	equ	0FEDh
  1628                           postinc0	equ	0FEEh
  1629                           indf0	equ	0FEFh
  1630                           intcon3	equ	0FF0h
  1631                           intcon2	equ	0FF1h
  1632                           intcon	equ	0FF2h
  1633                           prod	equ	0FF3h
  1634                           prodl	equ	0FF3h
  1635                           prodh	equ	0FF4h
  1636                           tablat	equ	0FF5h
  1637                           tblptr	equ	0FF6h
  1638                           tblptrl	equ	0FF6h
  1639                           tblptrh	equ	0FF7h
  1640                           tblptru	equ	0FF8h
  1641                           pcl	equ	0FF9h
  1642                           pclat	equ	0FFAh
  1643                           pclath	equ	0FFAh
  1644                           pclatu	equ	0FFBh
  1645                           stkptr	equ	0FFCh
  1646                           tosl	equ	0FFDh
  1647                           tosh	equ	0FFEh
  1648                           tosu	equ	0FFFh
  1649                           skipnz macro
  1650                           	btfsc	status,2
  1651                           	endm
  1652                           	global	__ramtop
  1653                           	global	__accesstop
  1654                           # 46 "C:\Program Files (x86)\Microchip\xc8\v1.12\include\pic18lf14k22.h"
  1655                           SRCON0 equ 0F68h ;# 
  1656                           # 116 "C:\Program Files (x86)\Microchip\xc8\v1.12\include\pic18lf14k22.h"
  1657                           SRCON1 equ 0F69h ;# 
  1658                           # 177 "C:\Program Files (x86)\Microchip\xc8\v1.12\include\pic18lf14k22.h"
  1659                           CM2CON0 equ 0F6Bh ;# 
  1660                           # 246 "C:\Program Files (x86)\Microchip\xc8\v1.12\include\pic18lf14k22.h"
  1661                           CM2CON1 equ 0F6Ch ;# 
  1662                           # 307 "C:\Program Files (x86)\Microchip\xc8\v1.12\include\pic18lf14k22.h"
  1663                           CM1CON0 equ 0F6Dh ;# 
  1664                           # 376 "C:\Program Files (x86)\Microchip\xc8\v1.12\include\pic18lf14k22.h"
  1665                           SSPMSK equ 0F6Fh ;# 
  1666                           # 381 "C:\Program Files (x86)\Microchip\xc8\v1.12\include\pic18lf14k22.h"
  1667                           SSPMASK equ 0F6Fh ;# 
  1668                           # 513 "C:\Program Files (x86)\Microchip\xc8\v1.12\include\pic18lf14k22.h"
  1669                           SLRCON equ 0F76h ;# 
  1670                           # 544 "C:\Program Files (x86)\Microchip\xc8\v1.12\include\pic18lf14k22.h"
  1671                           WPUA equ 0F77h ;# 
  1672                           # 601 "C:\Program Files (x86)\Microchip\xc8\v1.12\include\pic18lf14k22.h"
  1673                           WPUB equ 0F78h ;# 
  1674                           # 648 "C:\Program Files (x86)\Microchip\xc8\v1.12\include\pic18lf14k22.h"
  1675                           IOCA equ 0F79h ;# 
  1676                           # 705 "C:\Program Files (x86)\Microchip\xc8\v1.12\include\pic18lf14k22.h"
  1677                           IOCB equ 0F7Ah ;# 
  1678                           # 752 "C:\Program Files (x86)\Microchip\xc8\v1.12\include\pic18lf14k22.h"
  1679                           ANSEL equ 0F7Eh ;# 
  1680                           # 871 "C:\Program Files (x86)\Microchip\xc8\v1.12\include\pic18lf14k22.h"
  1681                           ANSELH equ 0F7Fh ;# 
  1682                           # 942 "C:\Program Files (x86)\Microchip\xc8\v1.12\include\pic18lf14k22.h"
  1683                           PORTA equ 0F80h ;# 
  1684                           # 1209 "C:\Program Files (x86)\Microchip\xc8\v1.12\include\pic18lf14k22.h"
  1685                           PORTB equ 0F81h ;# 
  1686                           # 1360 "C:\Program Files (x86)\Microchip\xc8\v1.12\include\pic18lf14k22.h"
  1687                           PORTC equ 0F82h ;# 
  1688                           # 1600 "C:\Program Files (x86)\Microchip\xc8\v1.12\include\pic18lf14k22.h"
  1689                           LATA equ 0F89h ;# 
  1690                           # 1724 "C:\Program Files (x86)\Microchip\xc8\v1.12\include\pic18lf14k22.h"
  1691                           LATB equ 0F8Ah ;# 
  1692                           # 1833 "C:\Program Files (x86)\Microchip\xc8\v1.12\include\pic18lf14k22.h"
  1693                           LATC equ 0F8Bh ;# 
  1694                           # 1965 "C:\Program Files (x86)\Microchip\xc8\v1.12\include\pic18lf14k22.h"
  1695                           TRISA equ 0F92h ;# 
  1696                           # 1970 "C:\Program Files (x86)\Microchip\xc8\v1.12\include\pic18lf14k22.h"
  1697                           DDRA equ 0F92h ;# 
  1698                           # 2118 "C:\Program Files (x86)\Microchip\xc8\v1.12\include\pic18lf14k22.h"
  1699                           TRISB equ 0F93h ;# 
  1700                           # 2123 "C:\Program Files (x86)\Microchip\xc8\v1.12\include\pic18lf14k22.h"
  1701                           DDRB equ 0F93h ;# 
  1702                           # 2247 "C:\Program Files (x86)\Microchip\xc8\v1.12\include\pic18lf14k22.h"
  1703                           TRISC equ 0F94h ;# 
  1704                           # 2252 "C:\Program Files (x86)\Microchip\xc8\v1.12\include\pic18lf14k22.h"
  1705                           DDRC equ 0F94h ;# 
  1706                           # 2468 "C:\Program Files (x86)\Microchip\xc8\v1.12\include\pic18lf14k22.h"
  1707                           OSCTUNE equ 0F9Bh ;# 
  1708                           # 2537 "C:\Program Files (x86)\Microchip\xc8\v1.12\include\pic18lf14k22.h"
  1709                           PIE1 equ 0F9Dh ;# 
  1710                           # 2610 "C:\Program Files (x86)\Microchip\xc8\v1.12\include\pic18lf14k22.h"
  1711                           PIR1 equ 0F9Eh ;# 
  1712                           # 2683 "C:\Program Files (x86)\Microchip\xc8\v1.12\include\pic18lf14k22.h"
  1713                           IPR1 equ 0F9Fh ;# 
  1714                           # 2756 "C:\Program Files (x86)\Microchip\xc8\v1.12\include\pic18lf14k22.h"
  1715                           PIE2 equ 0FA0h ;# 
  1716                           # 2816 "C:\Program Files (x86)\Microchip\xc8\v1.12\include\pic18lf14k22.h"
  1717                           PIR2 equ 0FA1h ;# 
  1718                           # 2876 "C:\Program Files (x86)\Microchip\xc8\v1.12\include\pic18lf14k22.h"
  1719                           IPR2 equ 0FA2h ;# 
  1720                           # 2936 "C:\Program Files (x86)\Microchip\xc8\v1.12\include\pic18lf14k22.h"
  1721                           EECON1 equ 0FA6h ;# 
  1722                           # 3001 "C:\Program Files (x86)\Microchip\xc8\v1.12\include\pic18lf14k22.h"
  1723                           EECON2 equ 0FA7h ;# 
  1724                           # 3007 "C:\Program Files (x86)\Microchip\xc8\v1.12\include\pic18lf14k22.h"
  1725                           EEDATA equ 0FA8h ;# 
  1726                           # 3013 "C:\Program Files (x86)\Microchip\xc8\v1.12\include\pic18lf14k22.h"
  1727                           EEADR equ 0FA9h ;# 
  1728                           # 3074 "C:\Program Files (x86)\Microchip\xc8\v1.12\include\pic18lf14k22.h"
  1729                           RCSTA equ 0FABh ;# 
  1730                           # 3079 "C:\Program Files (x86)\Microchip\xc8\v1.12\include\pic18lf14k22.h"
  1731                           RCSTA1 equ 0FABh ;# 
  1732                           # 3231 "C:\Program Files (x86)\Microchip\xc8\v1.12\include\pic18lf14k22.h"
  1733                           TXSTA equ 0FACh ;# 
  1734                           # 3236 "C:\Program Files (x86)\Microchip\xc8\v1.12\include\pic18lf14k22.h"
  1735                           TXSTA1 equ 0FACh ;# 
  1736                           # 3494 "C:\Program Files (x86)\Microchip\xc8\v1.12\include\pic18lf14k22.h"
  1737                           TXREG equ 0FADh ;# 
  1738                           # 3499 "C:\Program Files (x86)\Microchip\xc8\v1.12\include\pic18lf14k22.h"
  1739                           TXREG1 equ 0FADh ;# 
  1740                           # 3505 "C:\Program Files (x86)\Microchip\xc8\v1.12\include\pic18lf14k22.h"
  1741                           RCREG equ 0FAEh ;# 
  1742                           # 3510 "C:\Program Files (x86)\Microchip\xc8\v1.12\include\pic18lf14k22.h"
  1743                           RCREG1 equ 0FAEh ;# 
  1744                           # 3516 "C:\Program Files (x86)\Microchip\xc8\v1.12\include\pic18lf14k22.h"
  1745                           SPBRG equ 0FAFh ;# 
  1746                           # 3521 "C:\Program Files (x86)\Microchip\xc8\v1.12\include\pic18lf14k22.h"
  1747                           SPBRG1 equ 0FAFh ;# 
  1748                           # 3527 "C:\Program Files (x86)\Microchip\xc8\v1.12\include\pic18lf14k22.h"
  1749                           SPBRGH equ 0FB0h ;# 
  1750                           # 3533 "C:\Program Files (x86)\Microchip\xc8\v1.12\include\pic18lf14k22.h"
  1751                           T3CON equ 0FB1h ;# 
  1752                           # 3641 "C:\Program Files (x86)\Microchip\xc8\v1.12\include\pic18lf14k22.h"
  1753                           TMR3 equ 0FB2h ;# 
  1754                           # 3647 "C:\Program Files (x86)\Microchip\xc8\v1.12\include\pic18lf14k22.h"
  1755                           TMR3L equ 0FB2h ;# 
  1756                           # 3653 "C:\Program Files (x86)\Microchip\xc8\v1.12\include\pic18lf14k22.h"
  1757                           TMR3H equ 0FB3h ;# 
  1758                           # 3659 "C:\Program Files (x86)\Microchip\xc8\v1.12\include\pic18lf14k22.h"
  1759                           ECCP1AS equ 0FB6h ;# 
  1760                           # 3740 "C:\Program Files (x86)\Microchip\xc8\v1.12\include\pic18lf14k22.h"
  1761                           PWM1CON equ 0FB7h ;# 
  1762                           # 3809 "C:\Program Files (x86)\Microchip\xc8\v1.12\include\pic18lf14k22.h"
  1763                           BAUDCON equ 0FB8h ;# 
  1764                           # 3814 "C:\Program Files (x86)\Microchip\xc8\v1.12\include\pic18lf14k22.h"
  1765                           BAUDCTL equ 0FB8h ;# 
  1766                           # 3974 "C:\Program Files (x86)\Microchip\xc8\v1.12\include\pic18lf14k22.h"
  1767                           PSTRCON equ 0FB9h ;# 
  1768                           # 4017 "C:\Program Files (x86)\Microchip\xc8\v1.12\include\pic18lf14k22.h"
  1769                           VREFCON0 equ 0FBAh ;# 
  1770                           # 4022 "C:\Program Files (x86)\Microchip\xc8\v1.12\include\pic18lf14k22.h"
  1771                           REFCON0 equ 0FBAh ;# 
  1772                           # 4094 "C:\Program Files (x86)\Microchip\xc8\v1.12\include\pic18lf14k22.h"
  1773                           VREFCON1 equ 0FBBh ;# 
  1774                           # 4099 "C:\Program Files (x86)\Microchip\xc8\v1.12\include\pic18lf14k22.h"
  1775                           REFCON1 equ 0FBBh ;# 
  1776                           # 4225 "C:\Program Files (x86)\Microchip\xc8\v1.12\include\pic18lf14k22.h"
  1777                           VREFCON2 equ 0FBCh ;# 
  1778                           # 4230 "C:\Program Files (x86)\Microchip\xc8\v1.12\include\pic18lf14k22.h"
  1779                           REFCON2 equ 0FBCh ;# 
  1780                           # 4326 "C:\Program Files (x86)\Microchip\xc8\v1.12\include\pic18lf14k22.h"
  1781                           CCP1CON equ 0FBDh ;# 
  1782                           # 4407 "C:\Program Files (x86)\Microchip\xc8\v1.12\include\pic18lf14k22.h"
  1783                           CCPR1 equ 0FBEh ;# 
  1784                           # 4413 "C:\Program Files (x86)\Microchip\xc8\v1.12\include\pic18lf14k22.h"
  1785                           CCPR1L equ 0FBEh ;# 
  1786                           # 4419 "C:\Program Files (x86)\Microchip\xc8\v1.12\include\pic18lf14k22.h"
  1787                           CCPR1H equ 0FBFh ;# 
  1788                           # 4425 "C:\Program Files (x86)\Microchip\xc8\v1.12\include\pic18lf14k22.h"
  1789                           ADCON2 equ 0FC0h ;# 
  1790                           # 4495 "C:\Program Files (x86)\Microchip\xc8\v1.12\include\pic18lf14k22.h"
  1791                           ADCON1 equ 0FC1h ;# 
  1792                           # 4555 "C:\Program Files (x86)\Microchip\xc8\v1.12\include\pic18lf14k22.h"
  1793                           ADCON0 equ 0FC2h ;# 
  1794                           # 4673 "C:\Program Files (x86)\Microchip\xc8\v1.12\include\pic18lf14k22.h"
  1795                           ADRES equ 0FC3h ;# 
  1796                           # 4679 "C:\Program Files (x86)\Microchip\xc8\v1.12\include\pic18lf14k22.h"
  1797                           ADRESL equ 0FC3h ;# 
  1798                           # 4685 "C:\Program Files (x86)\Microchip\xc8\v1.12\include\pic18lf14k22.h"
  1799                           ADRESH equ 0FC4h ;# 
  1800                           # 4691 "C:\Program Files (x86)\Microchip\xc8\v1.12\include\pic18lf14k22.h"
  1801                           SSPCON2 equ 0FC5h ;# 
  1802                           # 4752 "C:\Program Files (x86)\Microchip\xc8\v1.12\include\pic18lf14k22.h"
  1803                           SSPCON1 equ 0FC6h ;# 
  1804                           # 4821 "C:\Program Files (x86)\Microchip\xc8\v1.12\include\pic18lf14k22.h"
  1805                           SSPSTAT equ 0FC7h ;# 
  1806                           # 5052 "C:\Program Files (x86)\Microchip\xc8\v1.12\include\pic18lf14k22.h"
  1807                           SSPADD equ 0FC8h ;# 
  1808                           # 5058 "C:\Program Files (x86)\Microchip\xc8\v1.12\include\pic18lf14k22.h"
  1809                           SSPBUF equ 0FC9h ;# 
  1810                           # 5064 "C:\Program Files (x86)\Microchip\xc8\v1.12\include\pic18lf14k22.h"
  1811                           T2CON equ 0FCAh ;# 
  1812                           # 5134 "C:\Program Files (x86)\Microchip\xc8\v1.12\include\pic18lf14k22.h"
  1813                           PR2 equ 0FCBh ;# 
  1814                           # 5139 "C:\Program Files (x86)\Microchip\xc8\v1.12\include\pic18lf14k22.h"
  1815                           MEMCON equ 0FCBh ;# 
  1816                           # 5145 "C:\Program Files (x86)\Microchip\xc8\v1.12\include\pic18lf14k22.h"
  1817                           TMR2 equ 0FCCh ;# 
  1818                           # 5151 "C:\Program Files (x86)\Microchip\xc8\v1.12\include\pic18lf14k22.h"
  1819                           T1CON equ 0FCDh ;# 
  1820                           # 5255 "C:\Program Files (x86)\Microchip\xc8\v1.12\include\pic18lf14k22.h"
  1821                           TMR1 equ 0FCEh ;# 
  1822                           # 5261 "C:\Program Files (x86)\Microchip\xc8\v1.12\include\pic18lf14k22.h"
  1823                           TMR1L equ 0FCEh ;# 
  1824                           # 5267 "C:\Program Files (x86)\Microchip\xc8\v1.12\include\pic18lf14k22.h"
  1825                           TMR1H equ 0FCFh ;# 
  1826                           # 5273 "C:\Program Files (x86)\Microchip\xc8\v1.12\include\pic18lf14k22.h"
  1827                           RCON equ 0FD0h ;# 
  1828                           # 5405 "C:\Program Files (x86)\Microchip\xc8\v1.12\include\pic18lf14k22.h"
  1829                           WDTCON equ 0FD1h ;# 
  1830                           # 5432 "C:\Program Files (x86)\Microchip\xc8\v1.12\include\pic18lf14k22.h"
  1831                           OSCCON2 equ 0FD2h ;# 
  1832                           # 5463 "C:\Program Files (x86)\Microchip\xc8\v1.12\include\pic18lf14k22.h"
  1833                           OSCCON equ 0FD3h ;# 
  1834                           # 5545 "C:\Program Files (x86)\Microchip\xc8\v1.12\include\pic18lf14k22.h"
  1835                           T0CON equ 0FD5h ;# 
  1836                           # 5614 "C:\Program Files (x86)\Microchip\xc8\v1.12\include\pic18lf14k22.h"
  1837                           TMR0 equ 0FD6h ;# 
  1838                           # 5620 "C:\Program Files (x86)\Microchip\xc8\v1.12\include\pic18lf14k22.h"
  1839                           TMR0L equ 0FD6h ;# 
  1840                           # 5626 "C:\Program Files (x86)\Microchip\xc8\v1.12\include\pic18lf14k22.h"
  1841                           TMR0H equ 0FD7h ;# 
  1842                           # 5632 "C:\Program Files (x86)\Microchip\xc8\v1.12\include\pic18lf14k22.h"
  1843                           STATUS equ 0FD8h ;# 
  1844                           # 5710 "C:\Program Files (x86)\Microchip\xc8\v1.12\include\pic18lf14k22.h"
  1845                           FSR2 equ 0FD9h ;# 
  1846                           # 5716 "C:\Program Files (x86)\Microchip\xc8\v1.12\include\pic18lf14k22.h"
  1847                           FSR2L equ 0FD9h ;# 
  1848                           # 5722 "C:\Program Files (x86)\Microchip\xc8\v1.12\include\pic18lf14k22.h"
  1849                           FSR2H equ 0FDAh ;# 
  1850                           # 5728 "C:\Program Files (x86)\Microchip\xc8\v1.12\include\pic18lf14k22.h"
  1851                           PLUSW2 equ 0FDBh ;# 
  1852                           # 5734 "C:\Program Files (x86)\Microchip\xc8\v1.12\include\pic18lf14k22.h"
  1853                           PREINC2 equ 0FDCh ;# 
  1854                           # 5740 "C:\Program Files (x86)\Microchip\xc8\v1.12\include\pic18lf14k22.h"
  1855                           POSTDEC2 equ 0FDDh ;# 
  1856                           # 5746 "C:\Program Files (x86)\Microchip\xc8\v1.12\include\pic18lf14k22.h"
  1857                           POSTINC2 equ 0FDEh ;# 
  1858                           # 5752 "C:\Program Files (x86)\Microchip\xc8\v1.12\include\pic18lf14k22.h"
  1859                           INDF2 equ 0FDFh ;# 
  1860                           # 5758 "C:\Program Files (x86)\Microchip\xc8\v1.12\include\pic18lf14k22.h"
  1861                           BSR equ 0FE0h ;# 
  1862                           # 5764 "C:\Program Files (x86)\Microchip\xc8\v1.12\include\pic18lf14k22.h"
  1863  000254                     __ptext0:
  1864                           opt subtitle "HI-TECH Software Omniscient Code Generator (Lite mode) build 49521"
  1865                           
  1866                           opt pagewidth 120
  1867                           
  1868  0000                     	__size_of_main	equ	__end_of_main-_main
  1869                           opt subtitle "HI-TECH Software Omniscient Code Generator (Lite mode) build 49521"
  1870  000254                     _main:
  1871                           opt subtitle "HI-TECH Software Omniscient Code Generator (Lite mode) build 49521"
  1872                           
  1873                           opt pagewidth 120
  1874  000254                     l1868:
  1875                           opt subtitle "HI-TECH Software Omniscient Code Generator (Lite mode) build 49521"
  1876  000254  90BD               		bcf	((c:4029)),c, 0+0	;volatile
  1877  000256  92BD               	bcf	((c:4029)),c, 0+1	;volatile
  1878  000258  94BD               	bcf	((c:4029)),c, 0+2	;volatile
  1879  00025A  96BD               	bcf	((c:4029)),c, 0+3	;volatile
  1880                           opt subtitle "HI-TECH Software Omniscient Code Generator (Lite mode) build 49521"
  1881                           
  1882                           opt pagewidth 120
  1883  00025C                     l1870:
  1884                           opt subtitle "HI-TECH Software Omniscient Code Generator (Lite mode) build 49521"
  1885  00025C  0E00               	movlw	low(0)
  1886  00025E  6E7F               	movwf	((c:3967)),c	;volatile
  1887                           opt subtitle "HI-TECH Software Omniscient Code Generator (Lite mode) build 49521"
  1888                           
  1889  000260  0E00               	movlw	low(0)
  1890  000262  6E7E               	movwf	((c:3966)),c	;volatile
  1891                           opt subtitle "HI-TECH Software Omniscient Code Generator (Lite mode) build 49521"
  1892                           
  1893  000264  0E00               	movlw	low(0)
  1894  000266  6E94               	movwf	((c:3988)),c	;volatile
  1895                           opt subtitle "HI-TECH Software Omniscient Code Generator (Lite mode) build 49521"
  1896                           
  1897  000268                     l1872:
  1898                           opt subtitle "HI-TECH Software Omniscient Code Generator (Lite mode) build 49521"
  1899  000268  88D3               		bsf	((c:4051)),c, 4+0	;volatile
  1900  00026A  8AD3               	bsf	((c:4051)),c, 4+1	;volatile
  1901  00026C  8CD3               	bsf	((c:4051)),c, 4+2	;volatile
  1902                           opt subtitle "HI-TECH Software Omniscient Code Generator (Lite mode) build 49521"
  1903                           
  1904                           opt pagewidth 120
  1905  00026E  50D3               	movf	((c:4051)),c,w	;volatile
  1906  000270  0BFC               	andlw	not (((1<<2)-1)<<0)
  1907  000272  0902               	iorlw	(02h & ((1<<2)-1))<<0
  1908  000274  6ED3               	movwf	((c:4051)),c	;volatile
  1909                           opt subtitle "HI-TECH Software Omniscient Code Generator (Lite mode) build 49521"
  1910                           
  1911  000276                     l1874:
  1912                           opt subtitle "HI-TECH Software Omniscient Code Generator (Lite mode) build 49521"
  1913  000276  0100               	movlb	0	; () banked
  1914  000278  6FCE               	movwf	(??_main+0+0)&0ffh
  1915  00027A  0E00               	movlw	low(0)
  1916  00027C  0100               	movlb	0	; () banked
  1917  00027E  0100               	movlb	0	; () banked
  1918  000280  6F72               	movwf	((_currentDoor))&0ffh
  1919  000282  0100               	movlb	0	; () banked
  1920  000284  51CE               	movf	(??_main+0+0)&0ffh,w
  1921                           opt subtitle "HI-TECH Software Omniscient Code Generator (Lite mode) build 49521"
  1922                           
  1923  000286                     l1876:; BSR set to: 0
  1924                           opt subtitle "HI-TECH Software Omniscient Code Generator (Lite mode) build 49521"
  1925                           
  1926  000286  EC66  F009         	call	_initUART	;wreg free
  1927                           opt subtitle "HI-TECH Software Omniscient Code Generator (Lite mode) build 49521"
  1928                           
  1929  00028A                     l1878:
  1930                           opt subtitle "HI-TECH Software Omniscient Code Generator (Lite mode) build 49521"
  1931  00028A  0E02               	movlw	high(main@motor_pins)
  1932  00028C  0100               	movlb	0	; () banked
  1933  00028E  0100               	movlb	0	; () banked
  1934  000290  6FBB               	movwf	((?_initStepperMotor+1))&0ffh
  1935  000292  0E34               	movlw	low(main@motor_pins)
  1936  000294  0100               	movlb	0	; () banked
  1937  000296  6FBA               	movwf	((?_initStepperMotor))&0ffh
  1938  000298  0100               	movlb	0	; () banked
  1939  00029A  ECE4  F004         	call	_initStepperMotor	;wreg free
  1940                           opt subtitle "HI-TECH Software Omniscient Code Generator (Lite mode) build 49521"
  1941                           
  1942  00029E                     l1880:
  1943                           opt subtitle "HI-TECH Software Omniscient Code Generator (Lite mode) build 49521"
  1944  00029E  8CD5               	bsf	((c:4053)),c,6	;volatile
  1945                           opt subtitle "HI-TECH Software Omniscient Code Generator (Lite mode) build 49521"
  1946                           
  1947  0002A0                     l1882:
  1948                           opt subtitle "HI-TECH Software Omniscient Code Generator (Lite mode) build 49521"
  1949  0002A0  86D5               	bsf	((c:4053)),c,3	;volatile
  1950                           opt subtitle "HI-TECH Software Omniscient Code Generator (Lite mode) build 49521"
  1951                           
  1952  0002A2                     l1884:
  1953                           opt subtitle "HI-TECH Software Omniscient Code Generator (Lite mode) build 49521"
  1954  0002A2  80D5               		bsf	((c:4053)),c, 0+0	;volatile
  1955  0002A4  82D5               	bsf	((c:4053)),c, 0+1	;volatile
  1956  0002A6  84D5               	bsf	((c:4053)),c, 0+2	;volatile
  1957                           opt subtitle "HI-TECH Software Omniscient Code Generator (Lite mode) build 49521"
  1958                           
  1959                           opt pagewidth 120
  1960  0002A8                     l1886:
  1961                           opt subtitle "HI-TECH Software Omniscient Code Generator (Lite mode) build 49521"
  1962  0002A8  9AD5               	bcf	((c:4053)),c,5	;volatile
  1963                           opt subtitle "HI-TECH Software Omniscient Code Generator (Lite mode) build 49521"
  1964                           
  1965  0002AA                     l1888:
  1966                           opt subtitle "HI-TECH Software Omniscient Code Generator (Lite mode) build 49521"
  1967  0002AA  0E00               	movlw	high(083h)
  1968  0002AC  6ED7               	movwf	((c:4054+1)),c	;volatile
  1969  0002AE  0E83               	movlw	low(083h)
  1970  0002B0  6ED6               	movwf	((c:4054)),c	;volatile
  1971                           opt subtitle "HI-TECH Software Omniscient Code Generator (Lite mode) build 49521"
  1972                           
  1973  0002B2                     l1890:
  1974                           opt subtitle "HI-TECH Software Omniscient Code Generator (Lite mode) build 49521"
  1975  0002B2  8ED5               	bsf	((c:4053)),c,7	;volatile
  1976                           opt subtitle "HI-TECH Software Omniscient Code Generator (Lite mode) build 49521"
  1977                           
  1978  0002B4                     l1892:
  1979                           opt subtitle "HI-TECH Software Omniscient Code Generator (Lite mode) build 49521"
  1980  0002B4  8AF2               	bsf	((c:4082)),c,5	;volatile
  1981                           opt subtitle "HI-TECH Software Omniscient Code Generator (Lite mode) build 49521"
  1982                           
  1983  0002B6                     l1894:
  1984                           opt subtitle "HI-TECH Software Omniscient Code Generator (Lite mode) build 49521"
  1985                           
  1986  0002B6  0E02               	movlw	high(STR_1)
  1987  0002B8  0100               	movlb	0	; () banked
  1988  0002BA  0100               	movlb	0	; () banked
  1989  0002BC  6FC8               	movwf	((?_writeUARTMessage+1))&0ffh
  1990  0002BE  0E4A               	movlw	low(STR_1)
  1991  0002C0  0100               	movlb	0	; () banked
  1992  0002C2  6FC7               	movwf	((?_writeUARTMessage))&0ffh
  1993  0002C4  0100               	movlb	0	; () banked
  1994  0002C6  0E00               	movlw	high(main@e)
  1995  0002C8  0100               	movlb	0	; () banked
  1996  0002CA  0100               	movlb	0	; () banked
  1997  0002CC  6FCA               	movwf	(1+(?_writeUARTMessage+02h))&0ffh
  1998  0002CE  0100               	movlb	0	; () banked
  1999  0002D0  0EDB               	movlw	low(main@e)
  2000  0002D2  0100               	movlb	0	; () banked
  2001  0002D4  6FC9               	movwf	(0+(?_writeUARTMessage+02h))&0ffh
  2002  0002D6  0100               	movlb	0	; () banked
  2003  0002D8  ECD6  F005         	call	_writeUARTMessage	;wreg free
  2004                           opt subtitle "HI-TECH Software Omniscient Code Generator (Lite mode) build 49521"
  2005                           
  2006  0002DC                     l1896:
  2007                           opt subtitle "HI-TECH Software Omniscient Code Generator (Lite mode) build 49521"
  2008  0002DC  CFD0 F0C7          	movff	(c:4048),(?_writeUART)	;volatile
  2009  0002E0  0100               	movlb	0	; () banked
  2010  0002E2  0E00               	movlw	high(main@e)
  2011  0002E4  0100               	movlb	0	; () banked
  2012  0002E6  0100               	movlb	0	; () banked
  2013  0002E8  6FC9               	movwf	(1+(?_writeUART+01h))&0ffh
  2014  0002EA  0100               	movlb	0	; () banked
  2015  0002EC  0EDB               	movlw	low(main@e)
  2016  0002EE  0100               	movlb	0	; () banked
  2017  0002F0  6FC8               	movwf	(0+(?_writeUART+01h))&0ffh
  2018  0002F2  0100               	movlb	0	; () banked
  2019  0002F4  EC00  F009         	call	_writeUART	;wreg free
  2020                           opt subtitle "HI-TECH Software Omniscient Code Generator (Lite mode) build 49521"
  2021                           
  2022  0002F8                     l1898:
  2023                           opt subtitle "HI-TECH Software Omniscient Code Generator (Lite mode) build 49521"
  2024  0002F8  9ED0               	bcf	((c:4048)),c,7	;volatile
  2025                           opt subtitle "HI-TECH Software Omniscient Code Generator (Lite mode) build 49521"
  2026                           
  2027  0002FA                     l1900:
  2028                           opt subtitle "HI-TECH Software Omniscient Code Generator (Lite mode) build 49521"
  2029  0002FA  8CF2               	bsf	((c:4082)),c,6	;volatile
  2030                           opt subtitle "HI-TECH Software Omniscient Code Generator (Lite mode) build 49521"
  2031                           
  2032  0002FC                     l1902:
  2033                           opt subtitle "HI-TECH Software Omniscient Code Generator (Lite mode) build 49521"
  2034  0002FC  8EF2               	bsf	((c:4082)),c,7	;volatile
  2035                           opt subtitle "HI-TECH Software Omniscient Code Generator (Lite mode) build 49521"
  2036                           
  2037  0002FE                     l1904:
  2038                           opt subtitle "HI-TECH Software Omniscient Code Generator (Lite mode) build 49521"
  2039  0002FE  0100               	movlb	0	; () banked
  2040  000300  6FCE               	movwf	(??_main+0+0)&0ffh
  2041  000302  0E00               	movlw	low(0)
  2042  000304  0100               	movlb	0	; () banked
  2043  000306  0100               	movlb	0	; () banked
  2044  000308  6FB9               	movwf	(0+(_keyName+05h))&0ffh
  2045  00030A  0100               	movlb	0	; () banked
  2046  00030C  51CE               	movf	(??_main+0+0)&0ffh,w
  2047                           opt subtitle "HI-TECH Software Omniscient Code Generator (Lite mode) build 49521"
  2048                           
  2049  00030E                     l1906:; BSR set to: 0
  2050                           opt subtitle "HI-TECH Software Omniscient Code Generator (Lite mode) build 49521"
  2051                           
  2052  00030E  0100               	movlb	0	; () banked
  2053  000310  6FCE               	movwf	(??_main+0+0)&0ffh
  2054  000312  0E00               	movlw	low(0)
  2055  000314  0100               	movlb	0	; () banked
  2056  000316  0100               	movlb	0	; () banked
  2057  000318  6FDE               	movwf	((main@UARTErrorCode))&0ffh
  2058  00031A  0100               	movlb	0	; () banked
  2059  00031C  51CE               	movf	(??_main+0+0)&0ffh,w
  2060                           opt subtitle "HI-TECH Software Omniscient Code Generator (Lite mode) build 49521"
  2061                           
  2062  00031E                     l1908:; BSR set to: 0
  2063                           opt subtitle "HI-TECH Software Omniscient Code Generator (Lite mode) build 49521"
  2064                           
  2065  00031E  0E00               	movlw	low(0)
  2066  000320  0100               	movlb	0	; () banked
  2067  000322  0100               	movlb	0	; () banked
  2068  000324  6FD6               	movwf	((main@wait))&0ffh
  2069  000326  0E00               	movlw	high(0)
  2070  000328  0100               	movlb	0	; () banked
  2071  00032A  6FD7               	movwf	((main@wait+1))&0ffh
  2072  00032C  0E00               	movlw	low highword(0)
  2073  00032E  0100               	movlb	0	; () banked
  2074  000330  6FD8               	movwf	((main@wait+2))&0ffh
  2075  000332  0E00               	movlw	high highword(0)
  2076  000334  0100               	movlb	0	; () banked
  2077  000336  6FD9               	movwf	((main@wait+3))&0ffh
  2078  000338  D1B3               	goto	l1976
  2079                           opt subtitle "HI-TECH Software Omniscient Code Generator (Lite mode) build 49521"
  2080                           
  2081                           opt pagewidth 120
  2082  00033A                     l106:; BSR set to: 0
  2083                           opt subtitle "HI-TECH Software Omniscient Code Generator (Lite mode) build 49521"
  2084                           
  2085                           opt pagewidth 120
  2086                           
  2087  00033A  D1B2               	goto	l1976
  2088                           opt subtitle "HI-TECH Software Omniscient Code Generator (Lite mode) build 49521"
  2089                           
  2090                           opt pagewidth 120
  2091                           
  2092  00033C                     l108:; BSR set to: 0
  2093                           opt subtitle "HI-TECH Software Omniscient Code Generator (Lite mode) build 49521"
  2094                           
  2095                           opt pagewidth 120
  2096  00033C                     l1910:; BSR set to: 0
  2097                           opt subtitle "HI-TECH Software Omniscient Code Generator (Lite mode) build 49521"
  2098                           
  2099                           opt pagewidth 120
  2100  00033C  0100               	movlb	0	; () banked
  2101  00033E  0100               	movlb	0	; () banked
  2102  000340  5173               	movf	((_keyReadyFlag))&0ffh,w	;volatile
  2103  000342  B4D8               	btfsc	status,2
  2104  000344  D001               	goto	u1631
  2105  000346  D001               	goto	u1630
  2106  000348                     u1631:
  2107  000348  D1AB               	goto	l1976
  2108  00034A                     u1630:
  2109                           opt subtitle "HI-TECH Software Omniscient Code Generator (Lite mode) build 49521"
  2110                           
  2111  00034A                     l1912:; BSR set to: 0
  2112                           opt subtitle "HI-TECH Software Omniscient Code Generator (Lite mode) build 49521"
  2113                           
  2114                           opt pagewidth 120
  2115  00034A  0E00               	movlw	low(0)
  2116  00034C  0100               	movlb	0	; () banked
  2117  00034E  0100               	movlb	0	; () banked
  2118  000350  6F73               	movwf	((_keyReadyFlag))&0ffh	;volatile
  2119                           opt subtitle "HI-TECH Software Omniscient Code Generator (Lite mode) build 49521"
  2120                           
  2121  000352                     l1914:; BSR set to: 0
  2122                           opt subtitle "HI-TECH Software Omniscient Code Generator (Lite mode) build 49521"
  2123                           
  2124  000352  0100               	movlb	0	; () banked
  2125  000354  6FCE               	movwf	(??_main+0+0)&0ffh
  2126  000356  0E01               	movlw	low(01h)
  2127  000358  0100               	movlb	0	; () banked
  2128  00035A  0100               	movlb	0	; () banked
  2129  00035C  6FDA               	movwf	((main@keyGood))&0ffh
  2130  00035E  0100               	movlb	0	; () banked
  2131  000360  51CE               	movf	(??_main+0+0)&0ffh,w
  2132                           opt subtitle "HI-TECH Software Omniscient Code Generator (Lite mode) build 49521"
  2133                           
  2134  000362                     l1916:; BSR set to: 0
  2135                           opt subtitle "HI-TECH Software Omniscient Code Generator (Lite mode) build 49521"
  2136                           
  2137  000362  0E00               	movlw	high(0)
  2138  000364  0100               	movlb	0	; () banked
  2139  000366  0100               	movlb	0	; () banked
  2140  000368  6FDD               	movwf	((main@i+1))&0ffh
  2141  00036A  0E00               	movlw	low(0)
  2142  00036C  0100               	movlb	0	; () banked
  2143  00036E  6FDC               	movwf	((main@i))&0ffh
  2144                           opt subtitle "HI-TECH Software Omniscient Code Generator (Lite mode) build 49521"
  2145  000370                     l1918:; BSR set to: 0
  2146                           opt subtitle "HI-TECH Software Omniscient Code Generator (Lite mode) build 49521"
  2147  000370  0100               	movlb	0	; () banked
  2148  000372  0100               	movlb	0	; () banked
  2149  000374  51DD               	movf	((main@i+1))&0ffh,w
  2150  000376  0A80               	xorlw	80h
  2151  000378  0F80               	addlw	-((0)^80h)
  2152  00037A  0E04               	movlw	04h
  2153  00037C  B4D8               	btfsc	status,2
  2154  00037E  5DDC               	subwf	((main@i))&0ffh,w
  2155  000380  A0D8               	btfss	status,0
  2156  000382  D001               	goto	u1641
  2157  000384  D001               	goto	u1640
  2158  000386                     u1641:
  2159  000386  D002               	goto	l1922
  2160  000388                     u1640:
  2161  000388  D090               	goto	l1946
  2162                           opt subtitle "HI-TECH Software Omniscient Code Generator (Lite mode) build 49521"
  2163  00038A                     l1920:; BSR set to: 0
  2164                           opt subtitle "HI-TECH Software Omniscient Code Generator (Lite mode) build 49521"
  2165  00038A  D08F               	goto	l1946
  2166                           opt subtitle "HI-TECH Software Omniscient Code Generator (Lite mode) build 49521"
  2167                           
  2168  00038C                     l110:; BSR set to: 0
  2169                           opt subtitle "HI-TECH Software Omniscient Code Generator (Lite mode) build 49521"
  2170                           
  2171                           opt pagewidth 120
  2172  00038C                     l1922:; BSR set to: 0
  2173                           opt subtitle "HI-TECH Software Omniscient Code Generator (Lite mode) build 49521"
  2174                           
  2175                           opt pagewidth 120
  2176  00038C  0100               	movlb	0	; () banked
  2177  00038E  6FCE               	movwf	(??_main+0+0)&0ffh
  2178  000390  0E01               	movlw	low(01h)
  2179  000392  0100               	movlb	0	; () banked
  2180  000394  0100               	movlb	0	; () banked
  2181  000396  6FDA               	movwf	((main@keyGood))&0ffh
  2182  000398  0100               	movlb	0	; () banked
  2183  00039A  51CE               	movf	(??_main+0+0)&0ffh,w
  2184                           opt subtitle "HI-TECH Software Omniscient Code Generator (Lite mode) build 49521"
  2185                           
  2186  00039C                     l1924:; BSR set to: 0
  2187                           opt subtitle "HI-TECH Software Omniscient Code Generator (Lite mode) build 49521"
  2188                           
  2189  00039C  0E00               	movlw	high(0)
  2190  00039E  0100               	movlb	0	; () banked
  2191  0003A0  0100               	movlb	0	; () banked
  2192  0003A2  6FE0               	movwf	((main@j+1))&0ffh
  2193  0003A4  0E00               	movlw	low(0)
  2194  0003A6  0100               	movlb	0	; () banked
  2195  0003A8  6FDF               	movwf	((main@j))&0ffh
  2196                           opt subtitle "HI-TECH Software Omniscient Code Generator (Lite mode) build 49521"
  2197  0003AA                     l1926:; BSR set to: 0
  2198                           opt subtitle "HI-TECH Software Omniscient Code Generator (Lite mode) build 49521"
  2199  0003AA  0100               	movlb	0	; () banked
  2200  0003AC  0100               	movlb	0	; () banked
  2201  0003AE  51E0               	movf	((main@j+1))&0ffh,w
  2202  0003B0  0A80               	xorlw	80h
  2203  0003B2  0F80               	addlw	-((0)^80h)
  2204  0003B4  0E05               	movlw	05h
  2205  0003B6  B4D8               	btfsc	status,2
  2206  0003B8  5DDF               	subwf	((main@j))&0ffh,w
  2207  0003BA  A0D8               	btfss	status,0
  2208  0003BC  D001               	goto	u1651
  2209  0003BE  D001               	goto	u1650
  2210  0003C0                     u1651:
  2211  0003C0  D002               	goto	l1930
  2212  0003C2                     u1650:
  2213  0003C2  D059               	goto	l1938
  2214                           opt subtitle "HI-TECH Software Omniscient Code Generator (Lite mode) build 49521"
  2215  0003C4                     l1928:; BSR set to: 0
  2216                           opt subtitle "HI-TECH Software Omniscient Code Generator (Lite mode) build 49521"
  2217  0003C4  D058               	goto	l1938
  2218                           opt subtitle "HI-TECH Software Omniscient Code Generator (Lite mode) build 49521"
  2219                           
  2220  0003C6                     l112:; BSR set to: 0
  2221                           opt subtitle "HI-TECH Software Omniscient Code Generator (Lite mode) build 49521"
  2222                           
  2223                           opt pagewidth 120
  2224  0003C6                     l1930:; BSR set to: 0
  2225                           opt subtitle "HI-TECH Software Omniscient Code Generator (Lite mode) build 49521"
  2226                           
  2227                           opt pagewidth 120
  2228  0003C6  C0DC  F0BA         	movff	(main@i),(?___wmul)
  2229  0003CA  C0DD  F0BB         	movff	(main@i+1),(?___wmul+1)
  2230  0003CE  0E00               	movlw	high(05h)
  2231  0003D0  0100               	movlb	0	; () banked
  2232  0003D2  0100               	movlb	0	; () banked
  2233  0003D4  6FBD               	movwf	(1+(?___wmul+02h))&0ffh
  2234  0003D6  0E05               	movlw	low(05h)
  2235  0003D8  0100               	movlb	0	; () banked
  2236  0003DA  6FBC               	movwf	(0+(?___wmul+02h))&0ffh
  2237  0003DC  0100               	movlb	0	; () banked
  2238  0003DE  EC9B  F008         	call	___wmul	;wreg free
  2239  0003E2  0100               	movlb	0	; () banked
  2240  0003E4  0EE1               	movlw	low(_allowedKeys)
  2241  0003E6  0100               	movlb	0	; () banked
  2242  0003E8  0100               	movlb	0	; () banked
  2243  0003EA  25BA               	addwf	(0+?___wmul)&0ffh,w
  2244  0003EC  0100               	movlb	0	; () banked
  2245  0003EE  6FCE               	movwf	(??_main+0+0)&0ffh
  2246  0003F0  0100               	movlb	0	; () banked
  2247  0003F2  0E00               	movlw	high(_allowedKeys)
  2248  0003F4  0100               	movlb	0	; () banked
  2249  0003F6  0100               	movlb	0	; () banked
  2250  0003F8  21BB               	addwfc	(1+?___wmul)&0ffh,w
  2251  0003FA  0100               	movlb	0	; () banked
  2252  0003FC  6FCF               	movwf	1+(??_main+0+0)&0ffh
  2253  0003FE  0100               	movlb	0	; () banked
  2254  000400  0100               	movlb	0	; () banked
  2255  000402  51DF               	movf	((main@j))&0ffh,w
  2256  000404  0100               	movlb	0	; () banked
  2257  000406  25CE               	addwf	(??_main+0+0)&0ffh,w
  2258  000408  6ED9               	movwf	c:fsr2l
  2259  00040A  0100               	movlb	0	; () banked
  2260  00040C  0100               	movlb	0	; () banked
  2261  00040E  51E0               	movf	((main@j+1))&0ffh,w
  2262  000410  0100               	movlb	0	; () banked
  2263  000412  21CF               	addwfc	(??_main+0+1)&0ffh,w
  2264  000414  6EDA               	movwf	1+c:fsr2l
  2265  000416  50DF               	movf	indf2,w
  2266  000418  0100               	movlb	0	; () banked
  2267  00041A  6FD0               	movwf	(??_main+2+0)&0ffh
  2268  00041C  0100               	movlb	0	; () banked
  2269  00041E  0EB4               	movlw	low(_keyName)
  2270  000420  0100               	movlb	0	; () banked
  2271  000422  0100               	movlb	0	; () banked
  2272  000424  25DF               	addwf	((main@j))&0ffh,w
  2273  000426  6ED9               	movwf	c:fsr2l
  2274  000428  0100               	movlb	0	; () banked
  2275  00042A  0E00               	movlw	high(_keyName)
  2276  00042C  0100               	movlb	0	; () banked
  2277  00042E  0100               	movlb	0	; () banked
  2278  000430  21E0               	addwfc	((main@j+1))&0ffh,w
  2279  000432  6EDA               	movwf	1+c:fsr2l
  2280  000434  50DF               	movf	indf2,w
  2281  000436  0100               	movlb	0	; () banked
  2282  000438  19D0               	xorwf	((??_main+2+0))&0ffh,w
  2283  00043A  B4D8               	btfsc	status,2
  2284  00043C  D001               	goto	u1661
  2285  00043E  D001               	goto	u1660
  2286  000440                     u1661:
  2287  000440  D009               	goto	l1934
  2288  000442                     u1660:
  2289                           opt subtitle "HI-TECH Software Omniscient Code Generator (Lite mode) build 49521"
  2290                           
  2291  000442                     l1932:; BSR set to: 0
  2292                           opt subtitle "HI-TECH Software Omniscient Code Generator (Lite mode) build 49521"
  2293                           
  2294                           opt pagewidth 120
  2295  000442  0100               	movlb	0	; () banked
  2296  000444  6FCE               	movwf	(??_main+0+0)&0ffh
  2297  000446  0E00               	movlw	low(0)
  2298  000448  0100               	movlb	0	; () banked
  2299  00044A  0100               	movlb	0	; () banked
  2300  00044C  6FDA               	movwf	((main@keyGood))&0ffh
  2301  00044E  0100               	movlb	0	; () banked
  2302  000450  51CE               	movf	(??_main+0+0)&0ffh,w
  2303                           opt subtitle "HI-TECH Software Omniscient Code Generator (Lite mode) build 49521"
  2304                           
  2305  000452  D011               	goto	l1938
  2306                           opt subtitle "HI-TECH Software Omniscient Code Generator (Lite mode) build 49521"
  2307                           
  2308  000454                     l114:; BSR set to: 0
  2309                           opt subtitle "HI-TECH Software Omniscient Code Generator (Lite mode) build 49521"
  2310                           
  2311                           opt pagewidth 120
  2312  000454                     l1934:; BSR set to: 0
  2313                           opt subtitle "HI-TECH Software Omniscient Code Generator (Lite mode) build 49521"
  2314  000454  0100               	movlb	0	; () banked
  2315  000456  0100               	movlb	0	; () banked
  2316  000458  4BDF               	infsnz	((main@j))&0ffh
  2317  00045A  2BE0               	incf	((main@j+1))&0ffh
  2318                           opt subtitle "HI-TECH Software Omniscient Code Generator (Lite mode) build 49521"
  2319  00045C                     l1936:; BSR set to: 0
  2320                           opt subtitle "HI-TECH Software Omniscient Code Generator (Lite mode) build 49521"
  2321  00045C  0100               	movlb	0	; () banked
  2322  00045E  0100               	movlb	0	; () banked
  2323  000460  51E0               	movf	((main@j+1))&0ffh,w
  2324  000462  0A80               	xorlw	80h
  2325  000464  0F80               	addlw	-((0)^80h)
  2326  000466  0E05               	movlw	05h
  2327  000468  B4D8               	btfsc	status,2
  2328  00046A  5DDF               	subwf	((main@j))&0ffh,w
  2329  00046C  A0D8               	btfss	status,0
  2330  00046E  D001               	goto	u1671
  2331  000470  D001               	goto	u1670
  2332  000472                     u1671:
  2333  000472  D7A9               	goto	l1930
  2334  000474                     u1670:
  2335  000474  D000               	goto	l1938
  2336                           opt subtitle "HI-TECH Software Omniscient Code Generator (Lite mode) build 49521"
  2337  000476                     l113:; BSR set to: 0
  2338                           opt subtitle "HI-TECH Software Omniscient Code Generator (Lite mode) build 49521"
  2339                           
  2340                           opt pagewidth 120
  2341  000476                     l1938:; BSR set to: 0
  2342                           opt subtitle "HI-TECH Software Omniscient Code Generator (Lite mode) build 49521"
  2343                           
  2344                           opt pagewidth 120
  2345                           
  2346  000476  0100               	movlb	0	; () banked
  2347  000478  0100               	movlb	0	; () banked
  2348  00047A  05DA               	decf	((main@keyGood))&0ffh,w
  2349                           opt subtitle "HI-TECH Software Omniscient Code Generator (Lite mode) build 49521"
  2350  00047C  A4D8               	btfss	status,2
  2351  00047E  D001               	goto	u1681
  2352  000480  D001               	goto	u1680
  2353  000482                     u1681:
  2354  000482  D002               	goto	l1942
  2355  000484                     u1680:
  2356  000484  D012               	goto	l1946
  2357                           opt subtitle "HI-TECH Software Omniscient Code Generator (Lite mode) build 49521"
  2358                           
  2359  000486                     l1940:; BSR set to: 0
  2360                           opt subtitle "HI-TECH Software Omniscient Code Generator (Lite mode) build 49521"
  2361                           
  2362                           opt pagewidth 120
  2363  000486  D011               	goto	l1946
  2364                           opt subtitle "HI-TECH Software Omniscient Code Generator (Lite mode) build 49521"
  2365                           
  2366  000488                     l115:; BSR set to: 0
  2367                           opt subtitle "HI-TECH Software Omniscient Code Generator (Lite mode) build 49521"
  2368                           
  2369                           opt pagewidth 120
  2370  000488                     l1942:; BSR set to: 0
  2371                           opt subtitle "HI-TECH Software Omniscient Code Generator (Lite mode) build 49521"
  2372  000488  0100               	movlb	0	; () banked
  2373  00048A  0100               	movlb	0	; () banked
  2374  00048C  4BDC               	infsnz	((main@i))&0ffh
  2375  00048E  2BDD               	incf	((main@i+1))&0ffh
  2376                           opt subtitle "HI-TECH Software Omniscient Code Generator (Lite mode) build 49521"
  2377  000490                     l1944:; BSR set to: 0
  2378                           opt subtitle "HI-TECH Software Omniscient Code Generator (Lite mode) build 49521"
  2379  000490  0100               	movlb	0	; () banked
  2380  000492  0100               	movlb	0	; () banked
  2381  000494  51DD               	movf	((main@i+1))&0ffh,w
  2382  000496  0A80               	xorlw	80h
  2383  000498  0F80               	addlw	-((0)^80h)
  2384  00049A  0E04               	movlw	04h
  2385  00049C  B4D8               	btfsc	status,2
  2386  00049E  5DDC               	subwf	((main@i))&0ffh,w
  2387  0004A0  A0D8               	btfss	status,0
  2388  0004A2  D001               	goto	u1691
  2389  0004A4  D001               	goto	u1690
  2390  0004A6                     u1691:
  2391  0004A6  D772               	goto	l1922
  2392  0004A8                     u1690:
  2393  0004A8  D000               	goto	l1946
  2394                           opt subtitle "HI-TECH Software Omniscient Code Generator (Lite mode) build 49521"
  2395  0004AA                     l111:; BSR set to: 0
  2396                           opt subtitle "HI-TECH Software Omniscient Code Generator (Lite mode) build 49521"
  2397                           
  2398                           opt pagewidth 120
  2399  0004AA                     l1946:; BSR set to: 0
  2400                           opt subtitle "HI-TECH Software Omniscient Code Generator (Lite mode) build 49521"
  2401                           
  2402                           opt pagewidth 120
  2403                           
  2404  0004AA  0100               	movlb	0	; () banked
  2405  0004AC  0100               	movlb	0	; () banked
  2406  0004AE  51DA               	movf	((main@keyGood))&0ffh,w
  2407  0004B0  B4D8               	btfsc	status,2
  2408  0004B2  D001               	goto	u1701
  2409  0004B4  D001               	goto	u1700
  2410  0004B6                     u1701:
  2411  0004B6  D023               	goto	l1952
  2412  0004B8                     u1700:
  2413                           opt subtitle "HI-TECH Software Omniscient Code Generator (Lite mode) build 49521"
  2414                           
  2415  0004B8                     l1948:; BSR set to: 0
  2416                           opt subtitle "HI-TECH Software Omniscient Code Generator (Lite mode) build 49521"
  2417                           
  2418                           opt pagewidth 120
  2419  0004B8  0E00               	movlw	high(0A0h)
  2420  0004BA  0100               	movlb	0	; () banked
  2421  0004BC  0100               	movlb	0	; () banked
  2422  0004BE  6FBB               	movwf	((?_startStepperMotor+1))&0ffh
  2423  0004C0  0EA0               	movlw	low(0A0h)
  2424  0004C2  0100               	movlb	0	; () banked
  2425  0004C4  6FBA               	movwf	((?_startStepperMotor))&0ffh
  2426  0004C6  0100               	movlb	0	; () banked
  2427  0004C8  6FCE               	movwf	(??_main+0+0)&0ffh
  2428  0004CA  0E00               	movlw	low(0)
  2429  0004CC  0100               	movlb	0	; () banked
  2430  0004CE  0100               	movlb	0	; () banked
  2431  0004D0  6FBC               	movwf	(0+(?_startStepperMotor+02h))&0ffh
  2432  0004D2  0100               	movlb	0	; () banked
  2433  0004D4  51CE               	movf	(??_main+0+0)&0ffh,w
  2434  0004D6  0E00               	movlw	high(050h)
  2435  0004D8  0100               	movlb	0	; () banked
  2436  0004DA  0100               	movlb	0	; () banked
  2437  0004DC  6FBE               	movwf	(1+(?_startStepperMotor+03h))&0ffh
  2438  0004DE  0E50               	movlw	low(050h)
  2439  0004E0  0100               	movlb	0	; () banked
  2440  0004E2  6FBD               	movwf	(0+(?_startStepperMotor+03h))&0ffh
  2441  0004E4  0100               	movlb	0	; () banked
  2442  0004E6  EC27  F008         	call	_startStepperMotor	;wreg free
  2443                           opt subtitle "HI-TECH Software Omniscient Code Generator (Lite mode) build 49521"
  2444                           
  2445  0004EA                     l1950:
  2446                           opt subtitle "HI-TECH Software Omniscient Code Generator (Lite mode) build 49521"
  2447  0004EA  0100               	movlb	0	; () banked
  2448  0004EC  6FCE               	movwf	(??_main+0+0)&0ffh
  2449  0004EE  0E01               	movlw	low(01h)
  2450  0004F0  0100               	movlb	0	; () banked
  2451  0004F2  0100               	movlb	0	; () banked
  2452  0004F4  6F72               	movwf	((_currentDoor))&0ffh
  2453  0004F6  0100               	movlb	0	; () banked
  2454  0004F8  51CE               	movf	(??_main+0+0)&0ffh,w
  2455                           opt subtitle "HI-TECH Software Omniscient Code Generator (Lite mode) build 49521"
  2456                           
  2457  0004FA  D001               	goto	l1952
  2458                           opt subtitle "HI-TECH Software Omniscient Code Generator (Lite mode) build 49521"
  2459                           
  2460  0004FC                     l116:; BSR set to: 0
  2461                           opt subtitle "HI-TECH Software Omniscient Code Generator (Lite mode) build 49521"
  2462  0004FC  D000               	goto	l1952
  2463                           opt subtitle "HI-TECH Software Omniscient Code Generator (Lite mode) build 49521"
  2464                           
  2465                           opt pagewidth 120
  2466                           
  2467  0004FE                     l117:; BSR set to: 0
  2468                           opt subtitle "HI-TECH Software Omniscient Code Generator (Lite mode) build 49521"
  2469                           
  2470                           opt pagewidth 120
  2471  0004FE                     l1952:; BSR set to: 0
  2472                           opt subtitle "HI-TECH Software Omniscient Code Generator (Lite mode) build 49521"
  2473                           
  2474                           opt pagewidth 120
  2475  0004FE  0E02               	movlw	high(STR_2)
  2476  000500  0100               	movlb	0	; () banked
  2477  000502  0100               	movlb	0	; () banked
  2478  000504  6FC8               	movwf	((?_writeUARTMessage+1))&0ffh
  2479  000506  0E40               	movlw	low(STR_2)
  2480  000508  0100               	movlb	0	; () banked
  2481  00050A  6FC7               	movwf	((?_writeUARTMessage))&0ffh
  2482  00050C  0100               	movlb	0	; () banked
  2483  00050E  0E00               	movlw	high(main@UARTErrorCode)
  2484  000510  0100               	movlb	0	; () banked
  2485  000512  0100               	movlb	0	; () banked
  2486  000514  6FCA               	movwf	(1+(?_writeUARTMessage+02h))&0ffh
  2487  000516  0100               	movlb	0	; () banked
  2488  000518  0EDE               	movlw	low(main@UARTErrorCode)
  2489  00051A  0100               	movlb	0	; () banked
  2490  00051C  6FC9               	movwf	(0+(?_writeUARTMessage+02h))&0ffh
  2491  00051E  0100               	movlb	0	; () banked
  2492  000520  ECD6  F005         	call	_writeUARTMessage	;wreg free
  2493                           opt subtitle "HI-TECH Software Omniscient Code Generator (Lite mode) build 49521"
  2494                           
  2495  000524  0100               	movlb	0	; () banked
  2496  000526  0E00               	movlw	high(_keyName)
  2497  000528  0100               	movlb	0	; () banked
  2498  00052A  0100               	movlb	0	; () banked
  2499  00052C  6FC8               	movwf	((?_writeUARTMessage+1))&0ffh
  2500  00052E  0100               	movlb	0	; () banked
  2501  000530  0EB4               	movlw	low(_keyName)
  2502  000532  0100               	movlb	0	; () banked
  2503  000534  6FC7               	movwf	((?_writeUARTMessage))&0ffh
  2504  000536  0100               	movlb	0	; () banked
  2505  000538  0E00               	movlw	high(main@UARTErrorCode)
  2506  00053A  0100               	movlb	0	; () banked
  2507  00053C  0100               	movlb	0	; () banked
  2508  00053E  6FCA               	movwf	(1+(?_writeUARTMessage+02h))&0ffh
  2509  000540  0100               	movlb	0	; () banked
  2510  000542  0EDE               	movlw	low(main@UARTErrorCode)
  2511  000544  0100               	movlb	0	; () banked
  2512  000546  6FC9               	movwf	(0+(?_writeUARTMessage+02h))&0ffh
  2513  000548  0100               	movlb	0	; () banked
  2514  00054A  ECD6  F005         	call	_writeUARTMessage	;wreg free
  2515                           opt subtitle "HI-TECH Software Omniscient Code Generator (Lite mode) build 49521"
  2516                           
  2517  00054E  0E02               	movlw	high(STR_3)
  2518  000550  0100               	movlb	0	; () banked
  2519  000552  0100               	movlb	0	; () banked
  2520  000554  6FC8               	movwf	((?_writeUARTMessage+1))&0ffh
  2521  000556  0E50               	movlw	low(STR_3)
  2522  000558  0100               	movlb	0	; () banked
  2523  00055A  6FC7               	movwf	((?_writeUARTMessage))&0ffh
  2524  00055C  0100               	movlb	0	; () banked
  2525  00055E  0E00               	movlw	high(main@UARTErrorCode)
  2526  000560  0100               	movlb	0	; () banked
  2527  000562  0100               	movlb	0	; () banked
  2528  000564  6FCA               	movwf	(1+(?_writeUARTMessage+02h))&0ffh
  2529  000566  0100               	movlb	0	; () banked
  2530  000568  0EDE               	movlw	low(main@UARTErrorCode)
  2531  00056A  0100               	movlb	0	; () banked
  2532  00056C  6FC9               	movwf	(0+(?_writeUARTMessage+02h))&0ffh
  2533  00056E  0100               	movlb	0	; () banked
  2534  000570  ECD6  F005         	call	_writeUARTMessage	;wreg free
  2535  000574  D095               	goto	l1976
  2536                           opt subtitle "HI-TECH Software Omniscient Code Generator (Lite mode) build 49521"
  2537                           
  2538  000576                     l109:
  2539                           opt subtitle "HI-TECH Software Omniscient Code Generator (Lite mode) build 49521"
  2540                           
  2541                           opt pagewidth 120
  2542  000576  D094               	goto	l1976
  2543                           opt subtitle "HI-TECH Software Omniscient Code Generator (Lite mode) build 49521"
  2544                           
  2545                           opt pagewidth 120
  2546                           
  2547  000578                     l119:
  2548                           opt subtitle "HI-TECH Software Omniscient Code Generator (Lite mode) build 49521"
  2549                           
  2550  000578                     l1954:
  2551                           opt subtitle "HI-TECH Software Omniscient Code Generator (Lite mode) build 49521"
  2552                           
  2553  000578  EC84  F009         	call	_stepperMotorFinished	;wreg free
  2554  00057C  0900               	iorlw	0
  2555  00057E  B4D8               	btfsc	status,2
  2556  000580  D001               	goto	u1711
  2557  000582  D001               	goto	u1710
  2558  000584                     u1711:
  2559  000584  D08D               	goto	l1976
  2560  000586                     u1710:
  2561                           opt subtitle "HI-TECH Software Omniscient Code Generator (Lite mode) build 49521"
  2562                           
  2563  000586                     l1956:
  2564                           opt subtitle "HI-TECH Software Omniscient Code Generator (Lite mode) build 49521"
  2565                           
  2566  000586  0100               	movlb	0	; () banked
  2567  000588  6FCE               	movwf	(??_main+0+0)&0ffh
  2568  00058A  0E02               	movlw	low(02h)
  2569  00058C  0100               	movlb	0	; () banked
  2570  00058E  0100               	movlb	0	; () banked
  2571  000590  6F72               	movwf	((_currentDoor))&0ffh
  2572  000592  0100               	movlb	0	; () banked
  2573  000594  51CE               	movf	(??_main+0+0)&0ffh,w
  2574                           opt subtitle "HI-TECH Software Omniscient Code Generator (Lite mode) build 49521"
  2575                           
  2576  000596                     l1958:; BSR set to: 0
  2577                           opt subtitle "HI-TECH Software Omniscient Code Generator (Lite mode) build 49521"
  2578                           
  2579  000596  C06E  F06A         	movff	(_sysTick),(_doorOpenTime)	;volatile
  2580  00059A  C06F  F06B         	movff	(_sysTick+1),(_doorOpenTime+1)	;volatile
  2581  00059E  C070  F06C         	movff	(_sysTick+2),(_doorOpenTime+2)	;volatile
  2582  0005A2  C071  F06D         	movff	(_sysTick+3),(_doorOpenTime+3)	;volatile
  2583  0005A6  D07C               	goto	l1976
  2584                           opt subtitle "HI-TECH Software Omniscient Code Generator (Lite mode) build 49521"
  2585                           
  2586  0005A8                     l120:; BSR set to: 0
  2587                           opt subtitle "HI-TECH Software Omniscient Code Generator (Lite mode) build 49521"
  2588                           
  2589                           opt pagewidth 120
  2590                           
  2591  0005A8  D07B               	goto	l1976
  2592                           opt subtitle "HI-TECH Software Omniscient Code Generator (Lite mode) build 49521"
  2593                           
  2594                           opt pagewidth 120
  2595                           
  2596  0005AA                     l121:; BSR set to: 0
  2597                           opt subtitle "HI-TECH Software Omniscient Code Generator (Lite mode) build 49521"
  2598                           
  2599                           opt pagewidth 120
  2600  0005AA                     l1960:; BSR set to: 0
  2601                           opt subtitle "HI-TECH Software Omniscient Code Generator (Lite mode) build 49521"
  2602                           
  2603                           opt pagewidth 120
  2604  0005AA  0100               	movlb	0	; () banked
  2605  0005AC  C06A  F0CE         	movff	(_doorOpenTime),??_main+0+0
  2606  0005B0  0100               	movlb	0	; () banked
  2607  0005B2  C06B  F0CF         	movff	(_doorOpenTime+1),??_main+0+0+1
  2608  0005B6  0100               	movlb	0	; () banked
  2609  0005B8  C06C  F0D0         	movff	(_doorOpenTime+2),??_main+0+0+2
  2610  0005BC  0100               	movlb	0	; () banked
  2611  0005BE  C06D  F0D1         	movff	(_doorOpenTime+3),??_main+0+0+3
  2612  0005C2  0100               	movlb	0	; () banked
  2613  0005C4  1FCE               	comf	(??_main+0+0)&0ffh
  2614  0005C6  1FCF               	comf	(??_main+0+1)&0ffh
  2615  0005C8  1FD0               	comf	(??_main+0+2)&0ffh
  2616  0005CA  1FD1               	comf	(??_main+0+3)&0ffh
  2617  0005CC  2BCE               	incf	(??_main+0+0)&0ffh
  2618  0005CE  0E00               	movlw	0
  2619  0005D0  23CF               	addwfc	(??_main+0+1)&0ffh
  2620  0005D2  23D0               	addwfc	(??_main+0+2)&0ffh
  2621  0005D4  23D1               	addwfc	(??_main+0+3)&0ffh
  2622  0005D6  0100               	movlb	0	; () banked
  2623  0005D8  0100               	movlb	0	; () banked
  2624  0005DA  516E               	movf	((_sysTick))&0ffh,w	;volatile
  2625  0005DC  0100               	movlb	0	; () banked
  2626  0005DE  25CE               	addwf	(??_main+0+0)&0ffh,w
  2627  0005E0  0100               	movlb	0	; () banked
  2628  0005E2  6FD2               	movwf	(??_main+4+0)&0ffh
  2629  0005E4  0100               	movlb	0	; () banked
  2630  0005E6  0100               	movlb	0	; () banked
  2631  0005E8  516F               	movf	((_sysTick+1))&0ffh,w
  2632  0005EA  0100               	movlb	0	; () banked
  2633  0005EC  21CF               	addwfc	(??_main+0+1)&0ffh,w
  2634  0005EE  0100               	movlb	0	; () banked
  2635  0005F0  6FD3               	movwf	1+(??_main+4+0)&0ffh	;volatile
  2636                           opt subtitle "HI-TECH Software Omniscient Code Generator (Lite mode) build 49521"
  2637  0005F2  0100               	movlb	0	; () banked
  2638  0005F4  0100               	movlb	0	; () banked
  2639  0005F6  5170               	movf	((_sysTick+2))&0ffh,w
  2640  0005F8  0100               	movlb	0	; () banked
  2641  0005FA  21D0               	addwfc	(??_main+0+2)&0ffh,w
  2642  0005FC  0100               	movlb	0	; () banked
  2643  0005FE  6FD4               	movwf	2+(??_main+4+0)&0ffh	;volatile
  2644                           opt subtitle "HI-TECH Software Omniscient Code Generator (Lite mode) build 49521"
  2645  000600  0100               	movlb	0	; () banked
  2646  000602  0100               	movlb	0	; () banked
  2647  000604  5171               	movf	((_sysTick+3))&0ffh,w
  2648  000606  0100               	movlb	0	; () banked
  2649  000608  21D1               	addwfc	(??_main+0+3)&0ffh,w
  2650  00060A  0100               	movlb	0	; () banked
  2651  00060C  6FD5               	movwf	3+(??_main+4+0)&0ffh	;volatile
  2652  00060E  0EA1               	movlw	low(0186A1h)
  2653  000610  0100               	movlb	0	; () banked
  2654  000612  5DD2               	subwf	(??_main+4+0)&0ffh,w
  2655  000614  0E86               	movlw	high(0186A1h)
  2656  000616  59D3               	subwfb	(??_main+4+1)&0ffh,w
  2657  000618  0E01               	movlw	low highword(0186A1h)
  2658  00061A  59D4               	subwfb	(??_main+4+2)&0ffh,w
  2659  00061C  0E00               	movlw	high highword(0186A1h)
  2660  00061E  0100               	movlb	0	; () banked
  2661  000620  59D5               	subwfb	(??_main+4+3)&0ffh,w
  2662  000622  A0D8               	btfss	status,0
  2663  000624  D001               	goto	u1721
  2664  000626  D001               	goto	u1720
  2665  000628                     u1721:
  2666  000628  D03B               	goto	l1976
  2667  00062A                     u1720:
  2668                           opt subtitle "HI-TECH Software Omniscient Code Generator (Lite mode) build 49521"
  2669                           
  2670  00062A                     l1962:; BSR set to: 0
  2671                           opt subtitle "HI-TECH Software Omniscient Code Generator (Lite mode) build 49521"
  2672                           
  2673                           opt pagewidth 120
  2674  00062A  0E00               	movlw	high(0A0h)
  2675  00062C  0100               	movlb	0	; () banked
  2676  00062E  0100               	movlb	0	; () banked
  2677  000630  6FBB               	movwf	((?_startStepperMotor+1))&0ffh
  2678  000632  0EA0               	movlw	low(0A0h)
  2679  000634  0100               	movlb	0	; () banked
  2680  000636  6FBA               	movwf	((?_startStepperMotor))&0ffh
  2681  000638  0100               	movlb	0	; () banked
  2682  00063A  6FCE               	movwf	(??_main+0+0)&0ffh
  2683  00063C  0E01               	movlw	low(01h)
  2684  00063E  0100               	movlb	0	; () banked
  2685  000640  0100               	movlb	0	; () banked
  2686  000642  6FBC               	movwf	(0+(?_startStepperMotor+02h))&0ffh
  2687  000644  0100               	movlb	0	; () banked
  2688  000646  51CE               	movf	(??_main+0+0)&0ffh,w
  2689  000648  0E00               	movlw	high(0)
  2690  00064A  0100               	movlb	0	; () banked
  2691  00064C  0100               	movlb	0	; () banked
  2692  00064E  6FBE               	movwf	(1+(?_startStepperMotor+03h))&0ffh
  2693  000650  0E00               	movlw	low(0)
  2694  000652  0100               	movlb	0	; () banked
  2695  000654  6FBD               	movwf	(0+(?_startStepperMotor+03h))&0ffh
  2696  000656  0100               	movlb	0	; () banked
  2697  000658  EC27  F008         	call	_startStepperMotor	;wreg free
  2698                           opt subtitle "HI-TECH Software Omniscient Code Generator (Lite mode) build 49521"
  2699                           
  2700  00065C                     l1964:
  2701                           opt subtitle "HI-TECH Software Omniscient Code Generator (Lite mode) build 49521"
  2702  00065C  0100               	movlb	0	; () banked
  2703  00065E  6FCE               	movwf	(??_main+0+0)&0ffh
  2704  000660  0E03               	movlw	low(03h)
  2705  000662  0100               	movlb	0	; () banked
  2706  000664  0100               	movlb	0	; () banked
  2707  000666  6F72               	movwf	((_currentDoor))&0ffh
  2708  000668  0100               	movlb	0	; () banked
  2709  00066A  51CE               	movf	(??_main+0+0)&0ffh,w
  2710  00066C  D019               	goto	l1976
  2711                           opt subtitle "HI-TECH Software Omniscient Code Generator (Lite mode) build 49521"
  2712                           
  2713  00066E                     l122:; BSR set to: 0
  2714                           opt subtitle "HI-TECH Software Omniscient Code Generator (Lite mode) build 49521"
  2715                           
  2716                           opt pagewidth 120
  2717                           
  2718  00066E  D018               	goto	l1976
  2719                           opt subtitle "HI-TECH Software Omniscient Code Generator (Lite mode) build 49521"
  2720                           
  2721                           opt pagewidth 120
  2722                           
  2723  000670                     l123:; BSR set to: 0
  2724                           opt subtitle "HI-TECH Software Omniscient Code Generator (Lite mode) build 49521"
  2725                           
  2726                           opt pagewidth 120
  2727  000670                     l1966:; BSR set to: 0
  2728                           opt subtitle "HI-TECH Software Omniscient Code Generator (Lite mode) build 49521"
  2729                           
  2730                           opt pagewidth 120
  2731  000670  EC84  F009         	call	_stepperMotorFinished	;wreg free
  2732  000674  0900               	iorlw	0
  2733  000676  B4D8               	btfsc	status,2
  2734  000678  D001               	goto	u1731
  2735  00067A  D001               	goto	u1730
  2736  00067C                     u1731:
  2737  00067C  D011               	goto	l1976
  2738  00067E                     u1730:
  2739                           opt subtitle "HI-TECH Software Omniscient Code Generator (Lite mode) build 49521"
  2740                           
  2741  00067E                     l1968:
  2742                           opt subtitle "HI-TECH Software Omniscient Code Generator (Lite mode) build 49521"
  2743                           
  2744  00067E  0100               	movlb	0	; () banked
  2745  000680  6FCE               	movwf	(??_main+0+0)&0ffh
  2746  000682  0E00               	movlw	low(0)
  2747  000684  0100               	movlb	0	; () banked
  2748  000686  0100               	movlb	0	; () banked
  2749  000688  6F72               	movwf	((_currentDoor))&0ffh
  2750  00068A  0100               	movlb	0	; () banked
  2751  00068C  51CE               	movf	(??_main+0+0)&0ffh,w
  2752                           opt subtitle "HI-TECH Software Omniscient Code Generator (Lite mode) build 49521"
  2753                           
  2754  00068E                     l1970:; BSR set to: 0
  2755                           opt subtitle "HI-TECH Software Omniscient Code Generator (Lite mode) build 49521"
  2756                           
  2757  00068E  0E00               	movlw	low(0)
  2758  000690  0100               	movlb	0	; () banked
  2759  000692  0100               	movlb	0	; () banked
  2760  000694  6F73               	movwf	((_keyReadyFlag))&0ffh	;volatile
  2761                           opt subtitle "HI-TECH Software Omniscient Code Generator (Lite mode) build 49521"
  2762                           
  2763  000696                     l1972:; BSR set to: 0
  2764                           opt subtitle "HI-TECH Software Omniscient Code Generator (Lite mode) build 49521"
  2765                           
  2766  000696  EC03  F007         	call	_release_stepper_motor	;wreg free
  2767  00069A  D002               	goto	l1976
  2768                           opt subtitle "HI-TECH Software Omniscient Code Generator (Lite mode) build 49521"
  2769                           
  2770  00069C                     l124:
  2771                           opt subtitle "HI-TECH Software Omniscient Code Generator (Lite mode) build 49521"
  2772                           
  2773                           opt pagewidth 120
  2774  00069C  D001               	goto	l1976
  2775                           opt subtitle "HI-TECH Software Omniscient Code Generator (Lite mode) build 49521"
  2776                           
  2777  00069E                     l1974:
  2778                           opt subtitle "HI-TECH Software Omniscient Code Generator (Lite mode) build 49521"
  2779                           
  2780  00069E  D000               	goto	l1976
  2781                           opt subtitle "HI-TECH Software Omniscient Code Generator (Lite mode) build 49521"
  2782                           
  2783  0006A0                     l107:
  2784                           opt subtitle "HI-TECH Software Omniscient Code Generator (Lite mode) build 49521"
  2785  0006A0                     l1976:
  2786  0006A0  0100               	movlb	0	; () banked
  2787  0006A2  0100               	movlb	0	; () banked
  2788  0006A4  5172               	movf	((_currentDoor))&0ffh,w
  2789                           opt subtitle "HI-TECH Software Omniscient Code Generator (Lite mode) build 49521"
  2790                           
  2791                           opt pagewidth 120
  2792                           
  2793                           	opt lm
  2794                           
  2795                           	processor	18LF14K22
  2796  0006A6  0A00               	xorlw	0^0	; case 0
  2797  0006A8  B4D8               	skipnz
  2798  0006AA  D648               	goto	l1910
  2799  0006AC  0A01               	xorlw	1^0	; case 1
  2800  0006AE  B4D8               	skipnz
  2801  0006B0  D763               	goto	l1954
  2802  0006B2  0A03               	xorlw	2^1	; case 2
  2803  0006B4  B4D8               	skipnz
  2804  0006B6  D779               	goto	l1960
  2805  0006B8  0A01               	xorlw	3^2	; case 3
  2806  0006BA  B4D8               	skipnz
  2807  0006BC  D7D9               	goto	l1966
  2808  0006BE  D7F0               	goto	l1976
  2809                           opt subtitle "HI-TECH Software Omniscient Code Generator (Lite mode) build 49521"
  2810                           
  2811                           opt pagewidth 120
  2812  0006C0                     l118:; BSR set to: 0
  2813                           opt subtitle "HI-TECH Software Omniscient Code Generator (Lite mode) build 49521"
  2814  0006C0  D7EF               	goto	l1976
  2815                           opt subtitle "HI-TECH Software Omniscient Code Generator (Lite mode) build 49521"
  2816                           
  2817  0006C2                     l125:; BSR set to: 0
  2818                           opt subtitle "HI-TECH Software Omniscient Code Generator (Lite mode) build 49521"
  2819                           
  2820  0006C2  D7EE               	goto	l1976
  2821                           opt subtitle "HI-TECH Software Omniscient Code Generator (Lite mode) build 49521"
  2822  0006C4                     l126:; BSR set to: 0
  2823                           opt subtitle "HI-TECH Software Omniscient Code Generator (Lite mode) build 49521"
  2824                           
  2825                           opt pagewidth 120
  2826  0006C4                     l127:; BSR set to: 0
  2827                           opt subtitle "HI-TECH Software Omniscient Code Generator (Lite mode) build 49521"
  2828                           
  2829  0006C4  EF16  F001         	goto	start
  2830                           opt subtitle "HI-TECH Software Omniscient Code Generator (Lite mode) build 49521"
  2831                           
  2832  0006C8                     	__end_of_main:
  2833                           opt subtitle "HI-TECH Software Omniscient Code Generator (Lite mode) build 49521"
  2834                           
  2835                           opt pagewidth 120
  2836                           
  2837                           	opt lm
  2838                           
  2839                           	processor	18LF14K22
  2840                           porta	equ	0F80h
  2841                           portb	equ	0F81h
  2842                           portc	equ	0F82h
  2843                           portd	equ	0F83h
  2844                           porte	equ	0F84h
  2845                           lata	equ	0F89h
  2846                           latb	equ	0F8Ah
  2847                           latc	equ	0F8Bh
  2848                           latd	equ	0F8Ch
  2849                           late	equ	0F8Dh
  2850                           trisa	equ	0F92h
  2851                           trisb	equ	0F93h
  2852                           trisc	equ	0F94h
  2853                           trisd	equ	0F95h
  2854                           trise	equ	0F96h
  2855                           pie1	equ	0F9Dh
  2856                           pir1	equ	0F9Eh
  2857                           ipr1	equ	0F9Fh
  2858                           pie2	equ	0FA0h
  2859                           pir2	equ	0FA1h
  2860                           ipr2	equ	0FA2h
  2861                           t3con	equ	0FB1h
  2862                           tmr3l	equ	0FB2h
  2863                           tmr3h	equ	0FB3h
  2864                           ccp1con	equ	0FBDh
  2865                           ccpr1l	equ	0FBEh
  2866                           ccpr1h	equ	0FBFh
  2867  0012CC                     __ptext1:
  2868                           opt subtitle "HI-TECH Software Omniscient Code Generator (Lite mode) build 49521"
  2869                           
  2870                           opt pagewidth 120
  2871                           
  2872  0000                     	__size_of_initUART	equ	__end_of_initUART-_initUART
  2873                           opt subtitle "HI-TECH Software Omniscient Code Generator (Lite mode) build 49521"
  2874  0012CC                     _initUART:; BSR set to: 0
  2875                           opt subtitle "HI-TECH Software Omniscient Code Generator (Lite mode) build 49521"
  2876                           
  2877                           opt pagewidth 120
  2878                           
  2879  0012CC                     l1978:
  2880                           opt subtitle "HI-TECH Software Omniscient Code Generator (Lite mode) build 49521"
  2881  0012CC  96B8               	bcf	((c:4024)),c,3	;volatile
  2882                           opt subtitle "HI-TECH Software Omniscient Code Generator (Lite mode) build 49521"
  2883                           
  2884  0012CE  9AB8               	bcf	((c:4024)),c,5	;volatile
  2885                           opt subtitle "HI-TECH Software Omniscient Code Generator (Lite mode) build 49521"
  2886                           
  2887  0012D0  94AC               	bcf	((c:4012)),c,2	;volatile
  2888                           opt subtitle "HI-TECH Software Omniscient Code Generator (Lite mode) build 49521"
  2889                           
  2890  0012D2                     l1980:
  2891                           opt subtitle "HI-TECH Software Omniscient Code Generator (Lite mode) build 49521"
  2892  0012D2  0E19               	movlw	low(019h)
  2893  0012D4  6EAF               	movwf	((c:4015)),c	;volatile
  2894                           opt subtitle "HI-TECH Software Omniscient Code Generator (Lite mode) build 49521"
  2895                           
  2896  0012D6                     l1982:
  2897                           opt subtitle "HI-TECH Software Omniscient Code Generator (Lite mode) build 49521"
  2898  0012D6  8A93               	bsf	((c:3987)),c,5	;volatile
  2899                           opt subtitle "HI-TECH Software Omniscient Code Generator (Lite mode) build 49521"
  2900                           
  2901  0012D8                     l1984:
  2902                           opt subtitle "HI-TECH Software Omniscient Code Generator (Lite mode) build 49521"
  2903  0012D8  8E93               	bsf	((c:3987)),c,7	;volatile
  2904                           opt subtitle "HI-TECH Software Omniscient Code Generator (Lite mode) build 49521"
  2905                           
  2906  0012DA                     l1986:
  2907                           opt subtitle "HI-TECH Software Omniscient Code Generator (Lite mode) build 49521"
  2908  0012DA  8AAC               	bsf	((c:4012)),c,5	;volatile
  2909                           opt subtitle "HI-TECH Software Omniscient Code Generator (Lite mode) build 49521"
  2910                           
  2911  0012DC                     l1988:
  2912                           opt subtitle "HI-TECH Software Omniscient Code Generator (Lite mode) build 49521"
  2913  0012DC  98AC               	bcf	((c:4012)),c,4	;volatile
  2914                           opt subtitle "HI-TECH Software Omniscient Code Generator (Lite mode) build 49521"
  2915                           
  2916  0012DE                     l1990:
  2917                           opt subtitle "HI-TECH Software Omniscient Code Generator (Lite mode) build 49521"
  2918  0012DE  8EAB               	bsf	((c:4011)),c,7	;volatile
  2919                           opt subtitle "HI-TECH Software Omniscient Code Generator (Lite mode) build 49521"
  2920                           
  2921  0012E0                     l1992:
  2922                           opt subtitle "HI-TECH Software Omniscient Code Generator (Lite mode) build 49521"
  2923  0012E0  9CAC               	bcf	((c:4012)),c,6	;volatile
  2924                           opt subtitle "HI-TECH Software Omniscient Code Generator (Lite mode) build 49521"
  2925                           
  2926  0012E2                     l1994:
  2927                           opt subtitle "HI-TECH Software Omniscient Code Generator (Lite mode) build 49521"
  2928  0012E2  9CAB               	bcf	((c:4011)),c,6	;volatile
  2929                           opt subtitle "HI-TECH Software Omniscient Code Generator (Lite mode) build 49521"
  2930                           
  2931  0012E4                     l1996:
  2932                           opt subtitle "HI-TECH Software Omniscient Code Generator (Lite mode) build 49521"
  2933  0012E4  88AB               	bsf	((c:4011)),c,4	;volatile
  2934                           opt subtitle "HI-TECH Software Omniscient Code Generator (Lite mode) build 49521"
  2935                           
  2936  0012E6                     l1998:
  2937                           opt subtitle "HI-TECH Software Omniscient Code Generator (Lite mode) build 49521"
  2938  0012E6  8A9D               	bsf	((c:3997)),c,5	;volatile
  2939                           opt subtitle "HI-TECH Software Omniscient Code Generator (Lite mode) build 49521"
  2940                           
  2941  0012E8                     l2000:
  2942                           opt subtitle "HI-TECH Software Omniscient Code Generator (Lite mode) build 49521"
  2943  0012E8  8CF2               	bsf	((c:4082)),c,6	;volatile
  2944                           opt subtitle "HI-TECH Software Omniscient Code Generator (Lite mode) build 49521"
  2945                           
  2946  0012EA                     l166:
  2947  0012EA  0012               	return
  2948                           opt subtitle "HI-TECH Software Omniscient Code Generator (Lite mode) build 49521"
  2949                           
  2950  0012EC                     	__end_of_initUART:
  2951                           opt subtitle "HI-TECH Software Omniscient Code Generator (Lite mode) build 49521"
  2952                           
  2953                           opt pagewidth 120
  2954                           
  2955                           	opt lm
  2956                           
  2957                           	processor	18LF14K22
  2958                           porta	equ	0F80h
  2959                           portb	equ	0F81h
  2960                           portc	equ	0F82h
  2961                           portd	equ	0F83h
  2962                           porte	equ	0F84h
  2963                           lata	equ	0F89h
  2964                           latb	equ	0F8Ah
  2965                           latc	equ	0F8Bh
  2966                           latd	equ	0F8Ch
  2967                           late	equ	0F8Dh
  2968                           trisa	equ	0F92h
  2969                           trisb	equ	0F93h
  2970                           trisc	equ	0F94h
  2971                           trisd	equ	0F95h
  2972                           trise	equ	0F96h
  2973                           pie1	equ	0F9Dh
  2974                           pir1	equ	0F9Eh
  2975                           ipr1	equ	0F9Fh
  2976                           pie2	equ	0FA0h
  2977                           pir2	equ	0FA1h
  2978                           ipr2	equ	0FA2h
  2979                           t3con	equ	0FB1h
  2980                           tmr3l	equ	0FB2h
  2981                           tmr3h	equ	0FB3h
  2982                           ccp1con	equ	0FBDh
  2983                           ccpr1l	equ	0FBEh
  2984                           ccpr1h	equ	0FBFh
  2985                           adcon1	equ	0FC1h
  2986  0009C8                     __ptext2:
  2987                           opt subtitle "HI-TECH Software Omniscient Code Generator (Lite mode) build 49521"
  2988                           
  2989                           opt pagewidth 120
  2990                           
  2991  0000                     	__size_of_initStepperMotor	equ	__end_of_initStepperMotor-_initStepperMotor
  2992                           opt subtitle "HI-TECH Software Omniscient Code Generator (Lite mode) build 49521"
  2993  0009C8                     _initStepperMotor:
  2994                           opt subtitle "HI-TECH Software Omniscient Code Generator (Lite mode) build 49521"
  2995                           
  2996                           opt pagewidth 120
  2997  0009C8                     l2002:
  2998                           opt subtitle "HI-TECH Software Omniscient Code Generator (Lite mode) build 49521"
  2999  0009C8  8ECD               	bsf	((c:4045)),c,7	;volatile
  3000                           opt subtitle "HI-TECH Software Omniscient Code Generator (Lite mode) build 49521"
  3001                           
  3002  0009CA                     l2004:
  3003                           opt subtitle "HI-TECH Software Omniscient Code Generator (Lite mode) build 49521"
  3004  0009CA  0ECF               	movlw	((0 & ((1<<2)-1))<<4)|not (((1<<2)-1)<<4)
  3005  0009CC  16CD               	andwf	((c:4045)),c	;volatile
  3006                           opt subtitle "HI-TECH Software Omniscient Code Generator (Lite mode) build 49521"
  3007                           
  3008  0009CE                     l2006:
  3009                           opt subtitle "HI-TECH Software Omniscient Code Generator (Lite mode) build 49521"
  3010  0009CE  92CD               	bcf	((c:4045)),c,1	;volatile
  3011                           opt subtitle "HI-TECH Software Omniscient Code Generator (Lite mode) build 49521"
  3012                           
  3013  0009D0                     l2008:
  3014                           opt subtitle "HI-TECH Software Omniscient Code Generator (Lite mode) build 49521"
  3015  0009D0  80CD               	bsf	((c:4045)),c,0	;volatile
  3016                           opt subtitle "HI-TECH Software Omniscient Code Generator (Lite mode) build 49521"
  3017                           
  3018  0009D2  0E00               	movlw	low(0)
  3019  0009D4  6E31               	movwf	((c:_currentStep)),c	;volatile
  3020                           opt subtitle "HI-TECH Software Omniscient Code Generator (Lite mode) build 49521"
  3021                           
  3022  0009D6  0E00               	movlw	high(0)
  3023  0009D8  6E30               	movwf	((c:_stepsToGo+1)),c	;volatile
  3024  0009DA  0E00               	movlw	low(0)
  3025  0009DC  6E2F               	movwf	((c:_stepsToGo)),c	;volatile
  3026                           opt subtitle "HI-TECH Software Omniscient Code Generator (Lite mode) build 49521"
  3027                           
  3028  0009DE                     l2010:
  3029                           opt subtitle "HI-TECH Software Omniscient Code Generator (Lite mode) build 49521"
  3030  0009DE  0100               	movlb	0	; () banked
  3031  0009E0  C0BA  FFF6         	movff	(initStepperMotor@motor_pins_in),tblptrl
  3032  0009E4  0100               	movlb	0	; () banked
  3033  0009E6  C0BB  FFF7         	movff	(initStepperMotor@motor_pins_in+1),tblptrh
  3034  0009EA  0009               	tblrd	*+
  3035                           opt subtitle "HI-TECH Software Omniscient Code Generator (Lite mode) build 49521"
  3036  0009EC  CFF5 F0BC          	movff	tablat,??_initStepperMotor+0+0
  3037  0009F0  0009               	tblrd	*+
  3038                           opt subtitle "HI-TECH Software Omniscient Code Generator (Lite mode) build 49521"
  3039  0009F2  CFF5 F0BD          	movff	tablat,??_initStepperMotor+0+0+1
  3040  0009F6  0009               	tblrd	*+
  3041                           opt subtitle "HI-TECH Software Omniscient Code Generator (Lite mode) build 49521"
  3042  0009F8  CFF5 F0BE          	movff	tablat,??_initStepperMotor+0+0+2
  3043  0009FC  C0BC  F021         	movff	??_initStepperMotor+0+0,(c:_motor_pins)
  3044  000A00  C0BD  F022         	movff	??_initStepperMotor+0+1,(c:_motor_pins+1)
  3045  000A04  C0BE  F023         	movff	??_initStepperMotor+0+2,(c:_motor_pins+2)
  3046                           opt subtitle "HI-TECH Software Omniscient Code Generator (Lite mode) build 49521"
  3047                           
  3048  000A08                     l2012:; BSR set to: 0
  3049                           opt subtitle "HI-TECH Software Omniscient Code Generator (Lite mode) build 49521"
  3050                           
  3051  000A08  0E03               	movlw	03h
  3052  000A0A  0100               	movlb	0	; () banked
  3053  000A0C  0100               	movlb	0	; () banked
  3054  000A0E  25BA               	addwf	((initStepperMotor@motor_pins_in))&0ffh,w
  3055  000A10  0100               	movlb	0	; () banked
  3056  000A12  6FBC               	movwf	(??_initStepperMotor+0+0)&0ffh
  3057  000A14  0E00               	movlw	0
  3058  000A16  0100               	movlb	0	; () banked
  3059  000A18  0100               	movlb	0	; () banked
  3060  000A1A  21BB               	addwfc	((initStepperMotor@motor_pins_in+1))&0ffh,w
  3061  000A1C  0100               	movlb	0	; () banked
  3062  000A1E  6FBD               	movwf	(??_initStepperMotor+0+0+1)&0ffh
  3063  000A20  C0BC  FFF6         	movff	??_initStepperMotor+0+0,tblptrl
  3064  000A24  C0BD  FFF7         	movff	??_initStepperMotor+0+1,tblptrh
  3065  000A28  0009               	tblrd	*+
  3066                           opt subtitle "HI-TECH Software Omniscient Code Generator (Lite mode) build 49521"
  3067  000A2A  CFF5 F0BE          	movff	tablat,??_initStepperMotor+2+0
  3068  000A2E  0009               	tblrd	*+
  3069                           opt subtitle "HI-TECH Software Omniscient Code Generator (Lite mode) build 49521"
  3070  000A30  CFF5 F0BF          	movff	tablat,??_initStepperMotor+2+0+1
  3071  000A34  0009               	tblrd	*+
  3072                           opt subtitle "HI-TECH Software Omniscient Code Generator (Lite mode) build 49521"
  3073  000A36  CFF5 F0C0          	movff	tablat,??_initStepperMotor+2+0+2
  3074  000A3A  C0BE  F024         	movff	??_initStepperMotor+2+0,0+((c:_motor_pins)+03h)
  3075  000A3E  C0BF  F025         	movff	??_initStepperMotor+2+1,1+((c:_motor_pins)+03h)
  3076  000A42  C0C0  F026         	movff	??_initStepperMotor+2+2,2+((c:_motor_pins)+03h)
  3077                           opt subtitle "HI-TECH Software Omniscient Code Generator (Lite mode) build 49521"
  3078                           
  3079  000A46                     l2014:; BSR set to: 0
  3080                           opt subtitle "HI-TECH Software Omniscient Code Generator (Lite mode) build 49521"
  3081                           
  3082  000A46  0E06               	movlw	06h
  3083  000A48  0100               	movlb	0	; () banked
  3084  000A4A  0100               	movlb	0	; () banked
  3085  000A4C  25BA               	addwf	((initStepperMotor@motor_pins_in))&0ffh,w
  3086  000A4E  0100               	movlb	0	; () banked
  3087  000A50  6FBC               	movwf	(??_initStepperMotor+0+0)&0ffh
  3088  000A52  0E00               	movlw	0
  3089  000A54  0100               	movlb	0	; () banked
  3090  000A56  0100               	movlb	0	; () banked
  3091  000A58  21BB               	addwfc	((initStepperMotor@motor_pins_in+1))&0ffh,w
  3092  000A5A  0100               	movlb	0	; () banked
  3093  000A5C  6FBD               	movwf	(??_initStepperMotor+0+0+1)&0ffh
  3094  000A5E  C0BC  FFF6         	movff	??_initStepperMotor+0+0,tblptrl
  3095  000A62  C0BD  FFF7         	movff	??_initStepperMotor+0+1,tblptrh
  3096  000A66  0009               	tblrd	*+
  3097                           opt subtitle "HI-TECH Software Omniscient Code Generator (Lite mode) build 49521"
  3098  000A68  CFF5 F0BE          	movff	tablat,??_initStepperMotor+2+0
  3099  000A6C  0009               	tblrd	*+
  3100                           opt subtitle "HI-TECH Software Omniscient Code Generator (Lite mode) build 49521"
  3101  000A6E  CFF5 F0BF          	movff	tablat,??_initStepperMotor+2+0+1
  3102  000A72  0009               	tblrd	*+
  3103                           opt subtitle "HI-TECH Software Omniscient Code Generator (Lite mode) build 49521"
  3104  000A74  CFF5 F0C0          	movff	tablat,??_initStepperMotor+2+0+2
  3105  000A78  C0BE  F027         	movff	??_initStepperMotor+2+0,0+((c:_motor_pins)+06h)
  3106  000A7C  C0BF  F028         	movff	??_initStepperMotor+2+1,1+((c:_motor_pins)+06h)
  3107  000A80  C0C0  F029         	movff	??_initStepperMotor+2+2,2+((c:_motor_pins)+06h)
  3108                           opt subtitle "HI-TECH Software Omniscient Code Generator (Lite mode) build 49521"
  3109                           
  3110  000A84                     l2016:; BSR set to: 0
  3111                           opt subtitle "HI-TECH Software Omniscient Code Generator (Lite mode) build 49521"
  3112                           
  3113  000A84  0E09               	movlw	09h
  3114  000A86  0100               	movlb	0	; () banked
  3115  000A88  0100               	movlb	0	; () banked
  3116  000A8A  25BA               	addwf	((initStepperMotor@motor_pins_in))&0ffh,w
  3117  000A8C  0100               	movlb	0	; () banked
  3118  000A8E  6FBC               	movwf	(??_initStepperMotor+0+0)&0ffh
  3119  000A90  0E00               	movlw	0
  3120  000A92  0100               	movlb	0	; () banked
  3121  000A94  0100               	movlb	0	; () banked
  3122  000A96  21BB               	addwfc	((initStepperMotor@motor_pins_in+1))&0ffh,w
  3123  000A98  0100               	movlb	0	; () banked
  3124  000A9A  6FBD               	movwf	(??_initStepperMotor+0+0+1)&0ffh
  3125  000A9C  C0BC  FFF6         	movff	??_initStepperMotor+0+0,tblptrl
  3126  000AA0  C0BD  FFF7         	movff	??_initStepperMotor+0+1,tblptrh
  3127  000AA4  0009               	tblrd	*+
  3128                           opt subtitle "HI-TECH Software Omniscient Code Generator (Lite mode) build 49521"
  3129  000AA6  CFF5 F0BE          	movff	tablat,??_initStepperMotor+2+0
  3130  000AAA  0009               	tblrd	*+
  3131                           opt subtitle "HI-TECH Software Omniscient Code Generator (Lite mode) build 49521"
  3132  000AAC  CFF5 F0BF          	movff	tablat,??_initStepperMotor+2+0+1
  3133  000AB0  0009               	tblrd	*+
  3134                           opt subtitle "HI-TECH Software Omniscient Code Generator (Lite mode) build 49521"
  3135  000AB2  CFF5 F0C0          	movff	tablat,??_initStepperMotor+2+0+2
  3136  000AB6  C0BE  F02A         	movff	??_initStepperMotor+2+0,0+((c:_motor_pins)+09h)
  3137  000ABA  C0BF  F02B         	movff	??_initStepperMotor+2+1,1+((c:_motor_pins)+09h)
  3138  000ABE  C0C0  F02C         	movff	??_initStepperMotor+2+2,2+((c:_motor_pins)+09h)
  3139                           opt subtitle "HI-TECH Software Omniscient Code Generator (Lite mode) build 49521"
  3140                           
  3141  000AC2                     l217:; BSR set to: 0
  3142                           opt subtitle "HI-TECH Software Omniscient Code Generator (Lite mode) build 49521"
  3143  000AC2  0012               	return
  3144                           opt subtitle "HI-TECH Software Omniscient Code Generator (Lite mode) build 49521"
  3145                           
  3146  000AC4                     	__end_of_initStepperMotor:
  3147                           opt subtitle "HI-TECH Software Omniscient Code Generator (Lite mode) build 49521"
  3148                           
  3149                           opt pagewidth 120
  3150                           
  3151                           	opt lm
  3152                           
  3153                           	processor	18LF14K22
  3154                           porta	equ	0F80h
  3155                           portb	equ	0F81h
  3156                           portc	equ	0F82h
  3157                           portd	equ	0F83h
  3158                           porte	equ	0F84h
  3159                           lata	equ	0F89h
  3160                           latb	equ	0F8Ah
  3161                           latc	equ	0F8Bh
  3162                           latd	equ	0F8Ch
  3163                           late	equ	0F8Dh
  3164                           trisa	equ	0F92h
  3165                           trisb	equ	0F93h
  3166                           trisc	equ	0F94h
  3167                           trisd	equ	0F95h
  3168                           trise	equ	0F96h
  3169                           pie1	equ	0F9Dh
  3170                           pir1	equ	0F9Eh
  3171                           ipr1	equ	0F9Fh
  3172                           pie2	equ	0FA0h
  3173                           pir2	equ	0FA1h
  3174                           ipr2	equ	0FA2h
  3175                           t3con	equ	0FB1h
  3176                           tmr3l	equ	0FB2h
  3177                           tmr3h	equ	0FB3h
  3178                           ccp1con	equ	0FBDh
  3179                           ccpr1l	equ	0FBEh
  3180                           ccpr1h	equ	0FBFh
  3181                           adcon1	equ	0FC1h
  3182                           adcon0	equ	0FC2h
  3183  001200                     __ptext3:
  3184                           opt subtitle "HI-TECH Software Omniscient Code Generator (Lite mode) build 49521"
  3185                           
  3186                           opt pagewidth 120
  3187                           
  3188  0000                     	__size_of_writeUART	equ	__end_of_writeUART-_writeUART
  3189                           opt subtitle "HI-TECH Software Omniscient Code Generator (Lite mode) build 49521"
  3190  001200                     _writeUART:; BSR set to: 0
  3191                           opt subtitle "HI-TECH Software Omniscient Code Generator (Lite mode) build 49521"
  3192                           
  3193                           opt pagewidth 120
  3194                           
  3195  001200                     l2034:
  3196                           opt subtitle "HI-TECH Software Omniscient Code Generator (Lite mode) build 49521"
  3197                           
  3198  001200  0E00               	movlw	high((c:_transmitBuffer))
  3199  001202  0100               	movlb	0	; () banked
  3200  001204  0100               	movlb	0	; () banked
  3201  001206  6FBF               	movwf	((?_writeCircularBuffer+1))&0ffh
  3202  001208  0E3C               	movlw	low((c:_transmitBuffer))
  3203  00120A  0100               	movlb	0	; () banked
  3204  00120C  6FBE               	movwf	((?_writeCircularBuffer))&0ffh
  3205  00120E  C0C7  F0C0         	movff	(writeUART@data),0+(?_writeCircularBuffer+02h)
  3206  001212  0100               	movlb	0	; () banked
  3207  001214  0E00               	movlw	high(writeUART@e)
  3208  001216  0100               	movlb	0	; () banked
  3209  001218  0100               	movlb	0	; () banked
  3210  00121A  6FC2               	movwf	(1+(?_writeCircularBuffer+03h))&0ffh
  3211  00121C  0100               	movlb	0	; () banked
  3212  00121E  0ECA               	movlw	low(writeUART@e)
  3213  001220  0100               	movlb	0	; () banked
  3214  001222  6FC1               	movwf	(0+(?_writeCircularBuffer+03h))&0ffh
  3215  001224  0100               	movlb	0	; () banked
  3216  001226  EC62  F005         	call	_writeCircularBuffer	;wreg free
  3217                           opt subtitle "HI-TECH Software Omniscient Code Generator (Lite mode) build 49521"
  3218                           
  3219  00122A                     l2036:
  3220                           opt subtitle "HI-TECH Software Omniscient Code Generator (Lite mode) build 49521"
  3221  00122A  0100               	movlb	0	; () banked
  3222  00122C  0100               	movlb	0	; () banked
  3223  00122E  51CA               	movf	((writeUART@e))&0ffh,w
  3224  001230  B4D8               	btfsc	status,2
  3225  001232  D001               	goto	u1791
  3226  001234  D001               	goto	u1790
  3227  001236                     u1791:
  3228  001236  D008               	goto	l169
  3229  001238                     u1790:
  3230                           opt subtitle "HI-TECH Software Omniscient Code Generator (Lite mode) build 49521"
  3231                           
  3232  001238                     l2038:; BSR set to: 0
  3233                           opt subtitle "HI-TECH Software Omniscient Code Generator (Lite mode) build 49521"
  3234                           
  3235                           opt pagewidth 120
  3236  001238  C0C8  FFD9         	movff	(writeUART@error),fsr2l
  3237  00123C  C0C9  FFDA         	movff	(writeUART@error+1),fsr2h
  3238  001240  0E01               	movlw	low(01h)
  3239  001242  6EDF               	movwf	indf2
  3240  001244  D002               	goto	l170
  3241                           opt subtitle "HI-TECH Software Omniscient Code Generator (Lite mode) build 49521"
  3242                           
  3243  001246                     l2040:; BSR set to: 0
  3244                           opt subtitle "HI-TECH Software Omniscient Code Generator (Lite mode) build 49521"
  3245                           
  3246  001246  D001               	goto	l170
  3247                           opt subtitle "HI-TECH Software Omniscient Code Generator (Lite mode) build 49521"
  3248                           
  3249  001248                     l169:; BSR set to: 0
  3250                           opt subtitle "HI-TECH Software Omniscient Code Generator (Lite mode) build 49521"
  3251                           
  3252                           opt pagewidth 120
  3253                           
  3254  001248  889D               	bsf	((c:3997)),c,4	;volatile
  3255                           opt subtitle "HI-TECH Software Omniscient Code Generator (Lite mode) build 49521"
  3256                           
  3257  00124A                     l170:; BSR set to: 0
  3258                           opt subtitle "HI-TECH Software Omniscient Code Generator (Lite mode) build 49521"
  3259  00124A  0012               	return
  3260                           opt subtitle "HI-TECH Software Omniscient Code Generator (Lite mode) build 49521"
  3261                           
  3262  00124C                     	__end_of_writeUART:
  3263                           opt subtitle "HI-TECH Software Omniscient Code Generator (Lite mode) build 49521"
  3264                           
  3265                           opt pagewidth 120
  3266                           
  3267                           	opt lm
  3268                           
  3269                           	processor	18LF14K22
  3270                           porta	equ	0F80h
  3271                           portb	equ	0F81h
  3272                           portc	equ	0F82h
  3273                           portd	equ	0F83h
  3274                           porte	equ	0F84h
  3275                           lata	equ	0F89h
  3276                           latb	equ	0F8Ah
  3277                           latc	equ	0F8Bh
  3278                           latd	equ	0F8Ch
  3279                           late	equ	0F8Dh
  3280                           trisa	equ	0F92h
  3281                           trisb	equ	0F93h
  3282                           trisc	equ	0F94h
  3283                           trisd	equ	0F95h
  3284                           trise	equ	0F96h
  3285                           pie1	equ	0F9Dh
  3286                           pir1	equ	0F9Eh
  3287                           ipr1	equ	0F9Fh
  3288                           pie2	equ	0FA0h
  3289                           pir2	equ	0FA1h
  3290                           ipr2	equ	0FA2h
  3291                           t3con	equ	0FB1h
  3292                           tmr3l	equ	0FB2h
  3293                           tmr3h	equ	0FB3h
  3294                           ccp1con	equ	0FBDh
  3295                           ccpr1l	equ	0FBEh
  3296                           ccpr1h	equ	0FBFh
  3297                           adcon1	equ	0FC1h
  3298                           adcon0	equ	0FC2h
  3299                           adresl	equ	0FC3h
  3300                           adresh	equ	0FC4h
  3301                           sspcon2	equ	0FC5h
  3302                           sspcon1	equ	0FC6h
  3303  000BAC                     __ptext4:
  3304                           opt subtitle "HI-TECH Software Omniscient Code Generator (Lite mode) build 49521"
  3305                           
  3306                           opt pagewidth 120
  3307                           
  3308  0000                     	__size_of_writeUARTMessage	equ	__end_of_writeUARTMessage-_writeUARTMessage
  3309                           opt subtitle "HI-TECH Software Omniscient Code Generator (Lite mode) build 49521"
  3310  000BAC                     _writeUARTMessage:; BSR set to: 0
  3311                           opt subtitle "HI-TECH Software Omniscient Code Generator (Lite mode) build 49521"
  3312                           
  3313                           opt pagewidth 120
  3314                           
  3315  000BAC                     l2018:
  3316                           opt subtitle "HI-TECH Software Omniscient Code Generator (Lite mode) build 49521"
  3317                           
  3318  000BAC  C0C7  F0CB         	movff	(writeUARTMessage@msg),(writeUARTMessage@i)
  3319  000BB0  C0C8  F0CC         	movff	(writeUARTMessage@msg+1),(writeUARTMessage@i+1)
  3320  000BB4  D04E               	goto	l2032
  3321                           opt subtitle "HI-TECH Software Omniscient Code Generator (Lite mode) build 49521"
  3322                           
  3323  000BB6                     l174:
  3324                           opt subtitle "HI-TECH Software Omniscient Code Generator (Lite mode) build 49521"
  3325                           
  3326                           opt pagewidth 120
  3327  000BB6  D001               	goto	l2020
  3328                           opt subtitle "HI-TECH Software Omniscient Code Generator (Lite mode) build 49521"
  3329  000BB8                     l176:
  3330  000BB8  D000               	goto	l2020
  3331                           opt subtitle "HI-TECH Software Omniscient Code Generator (Lite mode) build 49521"
  3332  000BBA                     l175:
  3333                           opt subtitle "HI-TECH Software Omniscient Code Generator (Lite mode) build 49521"
  3334  000BBA                     l2020:
  3335  000BBA  0E00               	movlw	high((c:_transmitBuffer))
  3336  000BBC  0100               	movlb	0	; () banked
  3337  000BBE  0100               	movlb	0	; () banked
  3338  000BC0  6FBB               	movwf	((?_circularBufferFull+1))&0ffh
  3339  000BC2  0E3C               	movlw	low((c:_transmitBuffer))
  3340  000BC4  0100               	movlb	0	; () banked
  3341  000BC6  6FBA               	movwf	((?_circularBufferFull))&0ffh
  3342  000BC8  0100               	movlb	0	; () banked
  3343  000BCA  EC58  F007         	call	_circularBufferFull	;wreg free
  3344  000BCE  0900               	iorlw	0
  3345  000BD0  A4D8               	btfss	status,2
  3346  000BD2  D001               	goto	u1741
  3347  000BD4  D001               	goto	u1740
  3348  000BD6                     u1741:
  3349  000BD6  D7F1               	goto	l2020
  3350  000BD8                     u1740:
  3351  000BD8  D000               	goto	l2022
  3352                           opt subtitle "HI-TECH Software Omniscient Code Generator (Lite mode) build 49521"
  3353  000BDA                     l177:
  3354                           opt subtitle "HI-TECH Software Omniscient Code Generator (Lite mode) build 49521"
  3355                           
  3356  000BDA                     l2022:
  3357                           opt subtitle "HI-TECH Software Omniscient Code Generator (Lite mode) build 49521"
  3358  000BDA  0E00               	movlw	high((c:_transmitBuffer))
  3359  000BDC  0100               	movlb	0	; () banked
  3360  000BDE  0100               	movlb	0	; () banked
  3361  000BE0  6FBF               	movwf	((?_writeCircularBuffer+1))&0ffh
  3362  000BE2  0E3C               	movlw	low((c:_transmitBuffer))
  3363  000BE4  0100               	movlb	0	; () banked
  3364  000BE6  6FBE               	movwf	((?_writeCircularBuffer))&0ffh
  3365  000BE8  0100               	movlb	0	; () banked
  3366  000BEA  0100               	movlb	0	; () banked
  3367  000BEC  51CB               	movf	((writeUARTMessage@i))&0ffh,w
  3368  000BEE  6EF6               	movwf	tblptrl
  3369  000BF0  6EE9               	movwf	fsr0l
  3370  000BF2  0E01               	movlw	high __ramtop-1
  3371  000BF4  6EEA               	movwf	fsr0h
  3372  000BF6  0100               	movlb	0	; () banked
  3373  000BF8  0100               	movlb	0	; () banked
  3374  000BFA  51CC               	movf	((writeUARTMessage@i+1))&0ffh,w
  3375  000BFC  64EA               	cpfsgt	fsr0h
  3376  000BFE  D003               	bra	u1757
  3377  000C00  6EEA               	movwf	fsr0h
  3378  000C02  50EF               	movf	indf0,w
  3379  000C04  D003               	bra	u1750
  3380  000C06                     u1757:
  3381  000C06  6EF7               	movwf	tblptrh
  3382  000C08  0008               	tblrd	*
  3383                           opt subtitle "HI-TECH Software Omniscient Code Generator (Lite mode) build 49521"
  3384  000C0A  50F5               	movf	tablat,w
  3385  000C0C                     u1750:
  3386  000C0C  0100               	movlb	0	; () banked
  3387  000C0E  0100               	movlb	0	; () banked
  3388  000C10  6FC0               	movwf	(0+(?_writeCircularBuffer+02h))&0ffh
  3389  000C12  0100               	movlb	0	; () banked
  3390  000C14  0E00               	movlw	high(writeUARTMessage@e)
  3391  000C16  0100               	movlb	0	; () banked
  3392  000C18  0100               	movlb	0	; () banked
  3393  000C1A  6FC2               	movwf	(1+(?_writeCircularBuffer+03h))&0ffh
  3394  000C1C  0100               	movlb	0	; () banked
  3395  000C1E  0ECD               	movlw	low(writeUARTMessage@e)
  3396  000C20  0100               	movlb	0	; () banked
  3397  000C22  6FC1               	movwf	(0+(?_writeCircularBuffer+03h))&0ffh
  3398  000C24  0100               	movlb	0	; () banked
  3399  000C26  EC62  F005         	call	_writeCircularBuffer	;wreg free
  3400                           opt subtitle "HI-TECH Software Omniscient Code Generator (Lite mode) build 49521"
  3401                           
  3402  000C2A                     l2024:
  3403                           opt subtitle "HI-TECH Software Omniscient Code Generator (Lite mode) build 49521"
  3404  000C2A  0100               	movlb	0	; () banked
  3405  000C2C  0100               	movlb	0	; () banked
  3406  000C2E  51CD               	movf	((writeUARTMessage@e))&0ffh,w
  3407  000C30  B4D8               	btfsc	status,2
  3408  000C32  D001               	goto	u1761
  3409  000C34  D001               	goto	u1760
  3410  000C36                     u1761:
  3411  000C36  D007               	goto	l2028
  3412  000C38                     u1760:
  3413                           opt subtitle "HI-TECH Software Omniscient Code Generator (Lite mode) build 49521"
  3414                           
  3415  000C38                     l2026:; BSR set to: 0
  3416                           opt subtitle "HI-TECH Software Omniscient Code Generator (Lite mode) build 49521"
  3417                           
  3418                           opt pagewidth 120
  3419  000C38  C0C9  FFD9         	movff	(writeUARTMessage@error),fsr2l
  3420  000C3C  C0CA  FFDA         	movff	(writeUARTMessage@error+1),fsr2h
  3421  000C40  0E01               	movlw	low(01h)
  3422  000C42  6EDF               	movwf	indf2
  3423  000C44  D000               	goto	l2028
  3424                           opt subtitle "HI-TECH Software Omniscient Code Generator (Lite mode) build 49521"
  3425                           
  3426  000C46                     l178:; BSR set to: 0
  3427                           opt subtitle "HI-TECH Software Omniscient Code Generator (Lite mode) build 49521"
  3428                           
  3429                           opt pagewidth 120
  3430  000C46                     l2028:; BSR set to: 0
  3431                           opt subtitle "HI-TECH Software Omniscient Code Generator (Lite mode) build 49521"
  3432                           
  3433                           opt pagewidth 120
  3434  000C46  889D               	bsf	((c:3997)),c,4	;volatile
  3435                           opt subtitle "HI-TECH Software Omniscient Code Generator (Lite mode) build 49521"
  3436                           
  3437  000C48                     l2030:; BSR set to: 0
  3438                           opt subtitle "HI-TECH Software Omniscient Code Generator (Lite mode) build 49521"
  3439  000C48  0100               	movlb	0	; () banked
  3440  000C4A  0100               	movlb	0	; () banked
  3441  000C4C  4BCB               	infsnz	((writeUARTMessage@i))&0ffh
  3442  000C4E  2BCC               	incf	((writeUARTMessage@i+1))&0ffh
  3443  000C50  D000               	goto	l2032
  3444                           opt subtitle "HI-TECH Software Omniscient Code Generator (Lite mode) build 49521"
  3445  000C52                     l173:; BSR set to: 0
  3446                           opt subtitle "HI-TECH Software Omniscient Code Generator (Lite mode) build 49521"
  3447                           
  3448  000C52                     l2032:
  3449  000C52  0100               	movlb	0	; () banked
  3450  000C54  0100               	movlb	0	; () banked
  3451  000C56  51CB               	movf	((writeUARTMessage@i))&0ffh,w
  3452  000C58  6EF6               	movwf	tblptrl
  3453  000C5A  6EE9               	movwf	fsr0l
  3454  000C5C  0E01               	movlw	high __ramtop-1
  3455  000C5E  6EEA               	movwf	fsr0h
  3456  000C60  0100               	movlb	0	; () banked
  3457  000C62  0100               	movlb	0	; () banked
  3458  000C64  51CC               	movf	((writeUARTMessage@i+1))&0ffh,w
  3459  000C66  64EA               	cpfsgt	fsr0h
  3460  000C68  D003               	bra	u1777
  3461  000C6A  6EEA               	movwf	fsr0h
  3462  000C6C  50EF               	movf	indf0,w
  3463  000C6E  D003               	bra	u1770
  3464  000C70                     u1777:
  3465  000C70  6EF7               	movwf	tblptrh
  3466  000C72  0008               	tblrd	*
  3467                           opt subtitle "HI-TECH Software Omniscient Code Generator (Lite mode) build 49521"
  3468  000C74  50F5               	movf	tablat,w
  3469  000C76                     u1770:
  3470  000C76  0900               	iorlw	0
  3471  000C78  A4D8               	btfss	status,2
  3472  000C7A  D001               	goto	u1781
  3473  000C7C  D001               	goto	u1780
  3474  000C7E                     u1781:
  3475  000C7E  D79D               	goto	l2020
  3476  000C80                     u1780:
  3477  000C80  D000               	goto	l180
  3478                           opt subtitle "HI-TECH Software Omniscient Code Generator (Lite mode) build 49521"
  3479  000C82                     l179:
  3480                           opt subtitle "HI-TECH Software Omniscient Code Generator (Lite mode) build 49521"
  3481                           
  3482  000C82                     l180:
  3483  000C82  0012               	return
  3484                           opt subtitle "HI-TECH Software Omniscient Code Generator (Lite mode) build 49521"
  3485                           
  3486  000C84                     	__end_of_writeUARTMessage:
  3487                           opt subtitle "HI-TECH Software Omniscient Code Generator (Lite mode) build 49521"
  3488                           
  3489                           opt pagewidth 120
  3490                           
  3491                           	opt lm
  3492                           
  3493                           	processor	18LF14K22
  3494                           porta	equ	0F80h
  3495                           portb	equ	0F81h
  3496                           portc	equ	0F82h
  3497                           portd	equ	0F83h
  3498                           porte	equ	0F84h
  3499                           lata	equ	0F89h
  3500                           latb	equ	0F8Ah
  3501                           latc	equ	0F8Bh
  3502                           latd	equ	0F8Ch
  3503                           late	equ	0F8Dh
  3504                           trisa	equ	0F92h
  3505                           trisb	equ	0F93h
  3506                           trisc	equ	0F94h
  3507                           trisd	equ	0F95h
  3508                           trise	equ	0F96h
  3509                           pie1	equ	0F9Dh
  3510                           pir1	equ	0F9Eh
  3511                           ipr1	equ	0F9Fh
  3512                           pie2	equ	0FA0h
  3513                           pir2	equ	0FA1h
  3514                           ipr2	equ	0FA2h
  3515                           t3con	equ	0FB1h
  3516                           tmr3l	equ	0FB2h
  3517                           tmr3h	equ	0FB3h
  3518                           ccp1con	equ	0FBDh
  3519                           ccpr1l	equ	0FBEh
  3520                           ccpr1h	equ	0FBFh
  3521                           adcon1	equ	0FC1h
  3522                           adcon0	equ	0FC2h
  3523  00104E                     __ptext5:
  3524                           opt subtitle "HI-TECH Software Omniscient Code Generator (Lite mode) build 49521"
  3525                           
  3526                           opt pagewidth 120
  3527                           
  3528  0000                     	__size_of_startStepperMotor	equ	__end_of_startStepperMotor-_startStepperMotor
  3529                           opt subtitle "HI-TECH Software Omniscient Code Generator (Lite mode) build 49521"
  3530  00104E                     _startStepperMotor:
  3531                           opt subtitle "HI-TECH Software Omniscient Code Generator (Lite mode) build 49521"
  3532                           
  3533                           opt pagewidth 120
  3534  00104E                     l2042:
  3535                           opt subtitle "HI-TECH Software Omniscient Code Generator (Lite mode) build 49521"
  3536  00104E  C032  F034         	movff	(c:_direction),(c:_previousDirection)	;volatile
  3537                           opt subtitle "HI-TECH Software Omniscient Code Generator (Lite mode) build 49521"
  3538                           
  3539  001052  C0BA  F02F         	movff	(startStepperMotor@distance),(c:_stepsToGo)	;volatile
  3540  001056  C0BB  F030         	movff	(startStepperMotor@distance+1),(c:_stepsToGo+1)	;volatile
  3541                           opt subtitle "HI-TECH Software Omniscient Code Generator (Lite mode) build 49521"
  3542                           
  3543  00105A                     l2044:
  3544                           opt subtitle "HI-TECH Software Omniscient Code Generator (Lite mode) build 49521"
  3545  00105A  0E01               	movlw	01h
  3546  00105C  0100               	movlb	0	; () banked
  3547  00105E  0100               	movlb	0	; () banked
  3548  001060  5DBD               	subwf	((startStepperMotor@targetSpeed))&0ffh,w
  3549  001062  0ECB               	movlw	0CBh
  3550  001064  0100               	movlb	0	; () banked
  3551  001066  59BE               	subwfb	((startStepperMotor@targetSpeed+1))&0ffh,w
  3552  001068  A0D8               	btfss	status,0
  3553  00106A  D001               	goto	u1801
  3554  00106C  D001               	goto	u1800
  3555  00106E                     u1801:
  3556  00106E  D005               	goto	l220
  3557  001070                     u1800:
  3558                           opt subtitle "HI-TECH Software Omniscient Code Generator (Lite mode) build 49521"
  3559                           
  3560  001070                     l2046:; BSR set to: 0
  3561                           opt subtitle "HI-TECH Software Omniscient Code Generator (Lite mode) build 49521"
  3562                           
  3563                           opt pagewidth 120
  3564  001070  0ECB               	movlw	high(0CB00h)
  3565  001072  6E2E               	movwf	((c:_speed+1)),c	;volatile
  3566  001074  0E00               	movlw	low(0CB00h)
  3567  001076  6E2D               	movwf	((c:_speed)),c	;volatile
  3568                           opt subtitle "HI-TECH Software Omniscient Code Generator (Lite mode) build 49521"
  3569                           
  3570  001078  D004               	goto	l221
  3571                           opt subtitle "HI-TECH Software Omniscient Code Generator (Lite mode) build 49521"
  3572                           
  3573  00107A                     l220:; BSR set to: 0
  3574                           opt subtitle "HI-TECH Software Omniscient Code Generator (Lite mode) build 49521"
  3575                           
  3576                           opt pagewidth 120
  3577                           
  3578                           	opt lm
  3579  00107A  C0BD  F02D         	movff	(startStepperMotor@targetSpeed),(c:_speed)	;volatile
  3580  00107E  C0BE  F02E         	movff	(startStepperMotor@targetSpeed+1),(c:_speed+1)	;volatile
  3581                           opt subtitle "HI-TECH Software Omniscient Code Generator (Lite mode) build 49521"
  3582                           
  3583  001082                     l221:; BSR set to: 0
  3584                           opt subtitle "HI-TECH Software Omniscient Code Generator (Lite mode) build 49521"
  3585                           
  3586                           opt pagewidth 120
  3587                           
  3588  001082  C02D  FFCE         	movff	(c:_speed),(c:4046)	;volatile
  3589  001086  C02E  FFCF         	movff	(c:_speed+1),(c:4046+1)	;volatile
  3590                           opt subtitle "HI-TECH Software Omniscient Code Generator (Lite mode) build 49521"
  3591                           
  3592  00108A  C0BC  F032         	movff	(startStepperMotor@dir),(c:_direction)	;volatile
  3593                           opt subtitle "HI-TECH Software Omniscient Code Generator (Lite mode) build 49521"
  3594                           
  3595  00108E                     l2048:; BSR set to: 0
  3596                           opt subtitle "HI-TECH Software Omniscient Code Generator (Lite mode) build 49521"
  3597                           
  3598  00108E  5032               	movf	((c:_direction)),c,w	;volatile
  3599  001090  1834               	xorwf	((c:_previousDirection)),c,w	;volatile
  3600  001092  B4D8               	btfsc	status,2
  3601  001094  D001               	goto	u1811
  3602  001096  D001               	goto	u1810
  3603  001098                     u1811:
  3604  001098  D012               	goto	l2062
  3605  00109A                     u1810:
  3606  00109A  D006               	goto	l2058
  3607                           opt subtitle "HI-TECH Software Omniscient Code Generator (Lite mode) build 49521"
  3608                           
  3609  00109C                     l2050:; BSR set to: 0
  3610                           opt subtitle "HI-TECH Software Omniscient Code Generator (Lite mode) build 49521"
  3611                           
  3612                           opt pagewidth 120
  3613  00109C  D005               	goto	l2058
  3614                           opt subtitle "HI-TECH Software Omniscient Code Generator (Lite mode) build 49521"
  3615                           
  3616                           opt pagewidth 120
  3617                           
  3618  00109E                     l224:; BSR set to: 0
  3619                           opt subtitle "HI-TECH Software Omniscient Code Generator (Lite mode) build 49521"
  3620                           
  3621                           opt pagewidth 120
  3622  00109E                     l2052:
  3623                           opt subtitle "HI-TECH Software Omniscient Code Generator (Lite mode) build 49521"
  3624                           
  3625  00109E  2A31               	incf	((c:_currentStep)),c	;volatile
  3626                           opt subtitle "HI-TECH Software Omniscient Code Generator (Lite mode) build 49521"
  3627                           
  3628  0010A0  D00B               	goto	l2060
  3629                           opt subtitle "HI-TECH Software Omniscient Code Generator (Lite mode) build 49521"
  3630                           
  3631                           opt pagewidth 120
  3632                           
  3633  0010A2                     l226:
  3634                           opt subtitle "HI-TECH Software Omniscient Code Generator (Lite mode) build 49521"
  3635                           
  3636  0010A2                     l2054:
  3637                           opt subtitle "HI-TECH Software Omniscient Code Generator (Lite mode) build 49521"
  3638                           
  3639  0010A2  0631               	decf	((c:_currentStep)),c	;volatile
  3640                           opt subtitle "HI-TECH Software Omniscient Code Generator (Lite mode) build 49521"
  3641                           
  3642  0010A4  D009               	goto	l2060
  3643                           opt subtitle "HI-TECH Software Omniscient Code Generator (Lite mode) build 49521"
  3644                           
  3645  0010A6                     l2056:
  3646                           opt subtitle "HI-TECH Software Omniscient Code Generator (Lite mode) build 49521"
  3647                           
  3648  0010A6  D008               	goto	l2060
  3649                           opt subtitle "HI-TECH Software Omniscient Code Generator (Lite mode) build 49521"
  3650                           
  3651  0010A8                     l223:
  3652                           opt subtitle "HI-TECH Software Omniscient Code Generator (Lite mode) build 49521"
  3653  0010A8                     l2058:
  3654  0010A8  5032               	movf	((c:_direction)),c,w	;volatile
  3655                           opt subtitle "HI-TECH Software Omniscient Code Generator (Lite mode) build 49521"
  3656                           
  3657                           opt pagewidth 120
  3658                           
  3659                           	opt lm
  3660                           
  3661                           	processor	18LF14K22
  3662  0010AA  0A00               	xorlw	0^0	; case 0
  3663  0010AC  B4D8               	skipnz
  3664  0010AE  D7F7               	goto	l2052
  3665  0010B0  0A01               	xorlw	1^0	; case 1
  3666  0010B2  B4D8               	skipnz
  3667  0010B4  D7F6               	goto	l2054
  3668  0010B6  D000               	goto	l2060
  3669                           opt subtitle "HI-TECH Software Omniscient Code Generator (Lite mode) build 49521"
  3670                           
  3671                           opt pagewidth 120
  3672  0010B8                     l225:
  3673                           opt subtitle "HI-TECH Software Omniscient Code Generator (Lite mode) build 49521"
  3674                           
  3675  0010B8                     l2060:
  3676                           opt subtitle "HI-TECH Software Omniscient Code Generator (Lite mode) build 49521"
  3677  0010B8  0E03               	movlw	(03h)&0ffh
  3678  0010BA  1631               	andwf	((c:_currentStep)),c	;volatile
  3679  0010BC  D000               	goto	l2062
  3680                           opt subtitle "HI-TECH Software Omniscient Code Generator (Lite mode) build 49521"
  3681                           
  3682  0010BE                     l222:
  3683                           opt subtitle "HI-TECH Software Omniscient Code Generator (Lite mode) build 49521"
  3684                           
  3685  0010BE                     l2062:
  3686                           opt subtitle "HI-TECH Software Omniscient Code Generator (Lite mode) build 49521"
  3687                           
  3688  0010BE  809D               	bsf	((c:3997)),c,0	;volatile
  3689                           opt subtitle "HI-TECH Software Omniscient Code Generator (Lite mode) build 49521"
  3690                           
  3691  0010C0                     l227:
  3692  0010C0  0012               	return
  3693                           opt subtitle "HI-TECH Software Omniscient Code Generator (Lite mode) build 49521"
  3694                           
  3695  0010C2                     	__end_of_startStepperMotor:
  3696                           opt subtitle "HI-TECH Software Omniscient Code Generator (Lite mode) build 49521"
  3697                           
  3698                           opt pagewidth 120
  3699                           
  3700                           	opt lm
  3701                           
  3702                           	processor	18LF14K22
  3703                           porta	equ	0F80h
  3704                           portb	equ	0F81h
  3705                           portc	equ	0F82h
  3706                           portd	equ	0F83h
  3707                           porte	equ	0F84h
  3708                           lata	equ	0F89h
  3709                           latb	equ	0F8Ah
  3710                           latc	equ	0F8Bh
  3711                           latd	equ	0F8Ch
  3712                           late	equ	0F8Dh
  3713                           trisa	equ	0F92h
  3714                           trisb	equ	0F93h
  3715                           trisc	equ	0F94h
  3716                           trisd	equ	0F95h
  3717                           trise	equ	0F96h
  3718                           pie1	equ	0F9Dh
  3719                           pir1	equ	0F9Eh
  3720                           ipr1	equ	0F9Fh
  3721                           pie2	equ	0FA0h
  3722                           pir2	equ	0FA1h
  3723                           ipr2	equ	0FA2h
  3724                           t3con	equ	0FB1h
  3725                           tmr3l	equ	0FB2h
  3726                           tmr3h	equ	0FB3h
  3727                           ccp1con	equ	0FBDh
  3728                           ccpr1l	equ	0FBEh
  3729                           ccpr1h	equ	0FBFh
  3730  001308                     __ptext6:
  3731                           opt subtitle "HI-TECH Software Omniscient Code Generator (Lite mode) build 49521"
  3732                           
  3733                           opt pagewidth 120
  3734                           
  3735  0000                     	__size_of_stepperMotorFinished	equ	__end_of_stepperMotorFinished-_stepperMotorFinished
  3736                           opt subtitle "HI-TECH Software Omniscient Code Generator (Lite mode) build 49521"
  3737  001308                     _stepperMotorFinished:
  3738                           opt subtitle "HI-TECH Software Omniscient Code Generator (Lite mode) build 49521"
  3739                           
  3740                           opt pagewidth 120
  3741  001308                     l2064:
  3742                           opt subtitle "HI-TECH Software Omniscient Code Generator (Lite mode) build 49521"
  3743  001308  5030               	movf	((c:_stepsToGo+1)),c,w	;volatile
  3744  00130A  102F               	iorwf ((c:_stepsToGo)),c,w	;volatile
  3745                           opt subtitle "HI-TECH Software Omniscient Code Generator (Lite mode) build 49521"
  3746  00130C  B4D8               	btfsc	status,2
  3747  00130E  D001               	goto	u1821
  3748  001310  D002               	goto	u1820
  3749  001312                     u1821:
  3750  001312  0E01               	movlw	1
  3751  001314  D001               	goto	u1826
  3752  001316                     u1820:
  3753  001316  0E00               	movlw	0
  3754  001318                     u1826:
  3755  001318  D000               	goto	l230
  3756                           opt subtitle "HI-TECH Software Omniscient Code Generator (Lite mode) build 49521"
  3757  00131A                     l2066:
  3758                           opt subtitle "HI-TECH Software Omniscient Code Generator (Lite mode) build 49521"
  3759                           
  3760  00131A                     l230:
  3761  00131A  0012               	return
  3762                           opt subtitle "HI-TECH Software Omniscient Code Generator (Lite mode) build 49521"
  3763                           
  3764  00131C                     	__end_of_stepperMotorFinished:
  3765                           opt subtitle "HI-TECH Software Omniscient Code Generator (Lite mode) build 49521"
  3766                           
  3767                           opt pagewidth 120
  3768                           
  3769                           	opt lm
  3770                           
  3771                           	processor	18LF14K22
  3772                           porta	equ	0F80h
  3773                           portb	equ	0F81h
  3774                           portc	equ	0F82h
  3775                           portd	equ	0F83h
  3776                           porte	equ	0F84h
  3777                           lata	equ	0F89h
  3778                           latb	equ	0F8Ah
  3779                           latc	equ	0F8Bh
  3780                           latd	equ	0F8Ch
  3781                           late	equ	0F8Dh
  3782                           trisa	equ	0F92h
  3783                           trisb	equ	0F93h
  3784                           trisc	equ	0F94h
  3785                           trisd	equ	0F95h
  3786                           trise	equ	0F96h
  3787                           pie1	equ	0F9Dh
  3788                           pir1	equ	0F9Eh
  3789                           ipr1	equ	0F9Fh
  3790                           pie2	equ	0FA0h
  3791                           pir2	equ	0FA1h
  3792                           ipr2	equ	0FA2h
  3793                           t3con	equ	0FB1h
  3794                           tmr3l	equ	0FB2h
  3795                           tmr3h	equ	0FB3h
  3796                           ccp1con	equ	0FBDh
  3797                           ccpr1l	equ	0FBEh
  3798                           ccpr1h	equ	0FBFh
  3799  000E06                     __ptext7:
  3800                           opt subtitle "HI-TECH Software Omniscient Code Generator (Lite mode) build 49521"
  3801                           
  3802                           opt pagewidth 120
  3803                           
  3804  0000                     	__size_of_release_stepper_motor	equ	__end_of_release_stepper_motor-_release_stepper_mot
                                 or
  3805                           opt subtitle "HI-TECH Software Omniscient Code Generator (Lite mode) build 49521"
  3806  000E06                     _release_stepper_motor:
  3807                           opt subtitle "HI-TECH Software Omniscient Code Generator (Lite mode) build 49521"
  3808                           
  3809                           opt pagewidth 120
  3810  000E06                     l2068:
  3811                           opt subtitle "HI-TECH Software Omniscient Code Generator (Lite mode) build 49521"
  3812  000E06  C023  F0BA         	movff	0+((c:_motor_pins)+02h),??_release_stepper_motor+0+0
  3813  000E0A  0EFE               	movlw	(0FEh)&0ffh
  3814  000E0C  0100               	movlb	0	; () banked
  3815  000E0E  6FBB               	movwf	(??_release_stepper_motor+1+0)&0ffh
  3816  000E10  0100               	movlb	0	; () banked
  3817  000E12  2BBA               	incf	(??_release_stepper_motor+0+0)&0ffh
  3818  000E14  D003               	goto	u1834
  3819  000E16                     u1835:
  3820  000E16  0100               	movlb	0	; () banked
  3821  000E18  90D8               	bcf	status,0
  3822  000E1A  37BB               	rlcf	((??_release_stepper_motor+1+0))&0ffh
  3823  000E1C                     u1834:
  3824  000E1C  0100               	movlb	0	; () banked
  3825  000E1E  2FBA               	decfsz	(??_release_stepper_motor+0+0)&0ffh
  3826  000E20  D7FA               	goto	u1835
  3827  000E22  C021  FFD9         	movff	(c:_motor_pins),fsr2l
  3828  000E26  C022  FFDA         	movff	(c:_motor_pins+1),fsr2h
  3829  000E2A  0100               	movlb	0	; () banked
  3830  000E2C  51BB               	movf	((??_release_stepper_motor+1+0))&0ffh,w
  3831  000E2E  16DF               	andwf	indf2
  3832                           opt subtitle "HI-TECH Software Omniscient Code Generator (Lite mode) build 49521"
  3833                           
  3834  000E30  C026  F0BA         	movff	0+((c:_motor_pins)+05h),??_release_stepper_motor+0+0
  3835  000E34  0EFE               	movlw	(0FEh)&0ffh
  3836  000E36  0100               	movlb	0	; () banked
  3837  000E38  6FBB               	movwf	(??_release_stepper_motor+1+0)&0ffh
  3838  000E3A  0100               	movlb	0	; () banked
  3839  000E3C  2BBA               	incf	(??_release_stepper_motor+0+0)&0ffh
  3840  000E3E  D003               	goto	u1844
  3841  000E40                     u1845:
  3842  000E40  0100               	movlb	0	; () banked
  3843  000E42  90D8               	bcf	status,0
  3844  000E44  37BB               	rlcf	((??_release_stepper_motor+1+0))&0ffh
  3845  000E46                     u1844:
  3846  000E46  0100               	movlb	0	; () banked
  3847  000E48  2FBA               	decfsz	(??_release_stepper_motor+0+0)&0ffh
  3848  000E4A  D7FA               	goto	u1845
  3849  000E4C  C024  FFD9         	movff	0+((c:_motor_pins)+03h),fsr2l
  3850  000E50  C025  FFDA         	movff	1+((c:_motor_pins)+03h),fsr2h
  3851  000E54  0100               	movlb	0	; () banked
  3852  000E56  51BB               	movf	((??_release_stepper_motor+1+0))&0ffh,w
  3853  000E58  16DF               	andwf	indf2
  3854                           opt subtitle "HI-TECH Software Omniscient Code Generator (Lite mode) build 49521"
  3855                           
  3856  000E5A  C029  F0BA         	movff	0+((c:_motor_pins)+08h),??_release_stepper_motor+0+0
  3857  000E5E  0EFE               	movlw	(0FEh)&0ffh
  3858  000E60  0100               	movlb	0	; () banked
  3859  000E62  6FBB               	movwf	(??_release_stepper_motor+1+0)&0ffh
  3860  000E64  0100               	movlb	0	; () banked
  3861  000E66  2BBA               	incf	(??_release_stepper_motor+0+0)&0ffh
  3862  000E68  D003               	goto	u1854
  3863  000E6A                     u1855:
  3864  000E6A  0100               	movlb	0	; () banked
  3865  000E6C  90D8               	bcf	status,0
  3866  000E6E  37BB               	rlcf	((??_release_stepper_motor+1+0))&0ffh
  3867  000E70                     u1854:
  3868  000E70  0100               	movlb	0	; () banked
  3869  000E72  2FBA               	decfsz	(??_release_stepper_motor+0+0)&0ffh
  3870  000E74  D7FA               	goto	u1855
  3871  000E76  C027  FFD9         	movff	0+((c:_motor_pins)+06h),fsr2l
  3872  000E7A  C028  FFDA         	movff	1+((c:_motor_pins)+06h),fsr2h
  3873  000E7E  0100               	movlb	0	; () banked
  3874  000E80  51BB               	movf	((??_release_stepper_motor+1+0))&0ffh,w
  3875  000E82  16DF               	andwf	indf2
  3876                           opt subtitle "HI-TECH Software Omniscient Code Generator (Lite mode) build 49521"
  3877                           
  3878  000E84  C02C  F0BA         	movff	0+((c:_motor_pins)+0Bh),??_release_stepper_motor+0+0
  3879  000E88  0EFE               	movlw	(0FEh)&0ffh
  3880  000E8A  0100               	movlb	0	; () banked
  3881  000E8C  6FBB               	movwf	(??_release_stepper_motor+1+0)&0ffh
  3882  000E8E  0100               	movlb	0	; () banked
  3883  000E90  2BBA               	incf	(??_release_stepper_motor+0+0)&0ffh
  3884  000E92  D003               	goto	u1864
  3885  000E94                     u1865:
  3886  000E94  0100               	movlb	0	; () banked
  3887  000E96  90D8               	bcf	status,0
  3888  000E98  37BB               	rlcf	((??_release_stepper_motor+1+0))&0ffh
  3889  000E9A                     u1864:
  3890  000E9A  0100               	movlb	0	; () banked
  3891  000E9C  2FBA               	decfsz	(??_release_stepper_motor+0+0)&0ffh
  3892  000E9E  D7FA               	goto	u1865
  3893  000EA0  C02A  FFD9         	movff	0+((c:_motor_pins)+09h),fsr2l
  3894  000EA4  C02B  FFDA         	movff	1+((c:_motor_pins)+09h),fsr2h
  3895  000EA8  0100               	movlb	0	; () banked
  3896  000EAA  51BB               	movf	((??_release_stepper_motor+1+0))&0ffh,w
  3897  000EAC  16DF               	andwf	indf2
  3898                           opt subtitle "HI-TECH Software Omniscient Code Generator (Lite mode) build 49521"
  3899                           
  3900  000EAE                     l233:; BSR set to: 0
  3901                           opt subtitle "HI-TECH Software Omniscient Code Generator (Lite mode) build 49521"
  3902  000EAE  0012               	return
  3903                           opt subtitle "HI-TECH Software Omniscient Code Generator (Lite mode) build 49521"
  3904                           
  3905  000EB0                     	__end_of_release_stepper_motor:
  3906                           opt subtitle "HI-TECH Software Omniscient Code Generator (Lite mode) build 49521"
  3907                           
  3908                           opt pagewidth 120
  3909                           
  3910                           	opt lm
  3911                           
  3912                           	processor	18LF14K22
  3913                           porta	equ	0F80h
  3914                           portb	equ	0F81h
  3915                           portc	equ	0F82h
  3916                           portd	equ	0F83h
  3917                           porte	equ	0F84h
  3918                           lata	equ	0F89h
  3919                           latb	equ	0F8Ah
  3920                           latc	equ	0F8Bh
  3921                           latd	equ	0F8Ch
  3922                           late	equ	0F8Dh
  3923                           trisa	equ	0F92h
  3924                           trisb	equ	0F93h
  3925                           trisc	equ	0F94h
  3926                           trisd	equ	0F95h
  3927                           trise	equ	0F96h
  3928                           pie1	equ	0F9Dh
  3929                           pir1	equ	0F9Eh
  3930                           ipr1	equ	0F9Fh
  3931                           pie2	equ	0FA0h
  3932                           pir2	equ	0FA1h
  3933                           ipr2	equ	0FA2h
  3934                           t3con	equ	0FB1h
  3935                           tmr3l	equ	0FB2h
  3936                           tmr3h	equ	0FB3h
  3937                           ccp1con	equ	0FBDh
  3938                           ccpr1l	equ	0FBEh
  3939                           ccpr1h	equ	0FBFh
  3940                           adcon1	equ	0FC1h
  3941                           adcon0	equ	0FC2h
  3942                           adresl	equ	0FC3h
  3943                           adresh	equ	0FC4h
  3944                           sspcon2	equ	0FC5h
  3945  000AC4                     __ptext8:
  3946                           opt subtitle "HI-TECH Software Omniscient Code Generator (Lite mode) build 49521"
  3947                           
  3948                           opt pagewidth 120
  3949                           
  3950  0000                     	__size_of_writeCircularBuffer	equ	__end_of_writeCircularBuffer-_writeCircularBuffer
  3951                           opt subtitle "HI-TECH Software Omniscient Code Generator (Lite mode) build 49521"
  3952  000AC4                     _writeCircularBuffer:; BSR set to: 0
  3953                           opt subtitle "HI-TECH Software Omniscient Code Generator (Lite mode) build 49521"
  3954                           
  3955                           opt pagewidth 120
  3956                           
  3957  000AC4                     l2070:
  3958                           opt subtitle "HI-TECH Software Omniscient Code Generator (Lite mode) build 49521"
  3959  000AC4  C0BE  F0BA         	movff	(writeCircularBuffer@buf),(?_circularBufferFull)
  3960  000AC8  C0BF  F0BB         	movff	(writeCircularBuffer@buf+1),(?_circularBufferFull+1)
  3961  000ACC  0100               	movlb	0	; () banked
  3962  000ACE  EC58  F007         	call	_circularBufferFull	;wreg free
  3963  000AD2  0900               	iorlw	0
  3964  000AD4  B4D8               	btfsc	status,2
  3965  000AD6  D001               	goto	u1871
  3966  000AD8  D001               	goto	u1870
  3967  000ADA                     u1871:
  3968  000ADA  D008               	goto	l2076
  3969  000ADC                     u1870:
  3970                           opt subtitle "HI-TECH Software Omniscient Code Generator (Lite mode) build 49521"
  3971                           
  3972  000ADC                     l2072:
  3973                           opt subtitle "HI-TECH Software Omniscient Code Generator (Lite mode) build 49521"
  3974                           
  3975  000ADC  C0C1  FFD9         	movff	(writeCircularBuffer@error),fsr2l
  3976  000AE0  C0C2  FFDA         	movff	(writeCircularBuffer@error+1),fsr2h
  3977  000AE4  0E01               	movlw	low(01h)
  3978  000AE6  6EDF               	movwf	indf2
  3979  000AE8  D060               	goto	l273
  3980                           opt subtitle "HI-TECH Software Omniscient Code Generator (Lite mode) build 49521"
  3981                           
  3982  000AEA                     l2074:
  3983                           opt subtitle "HI-TECH Software Omniscient Code Generator (Lite mode) build 49521"
  3984  000AEA  D05F               	goto	l273
  3985                           opt subtitle "HI-TECH Software Omniscient Code Generator (Lite mode) build 49521"
  3986                           
  3987  000AEC                     l272:
  3988                           opt subtitle "HI-TECH Software Omniscient Code Generator (Lite mode) build 49521"
  3989                           
  3990  000AEC                     l2076:
  3991                           opt subtitle "HI-TECH Software Omniscient Code Generator (Lite mode) build 49521"
  3992                           
  3993  000AEC  0100               	movlb	0	; () banked
  3994  000AEE  EE20 F004          	lfsr	2,04h
  3995  000AF2  0100               	movlb	0	; () banked
  3996  000AF4  51BE               	movf	((writeCircularBuffer@buf))&0ffh,w
  3997  000AF6  26D9               	addwf	fsr2l
  3998  000AF8  0100               	movlb	0	; () banked
  3999  000AFA  51BF               	movf	((writeCircularBuffer@buf+1))&0ffh,w
  4000  000AFC  22DA               	addwfc	fsr2h
  4001  000AFE  CFDE F0C3          	movff	postinc2,??_writeCircularBuffer+0+0
  4002  000B02  CFDD F0C4          	movff	postdec2,??_writeCircularBuffer+0+0+1
  4003  000B06  C0BE  FFD9         	movff	(writeCircularBuffer@buf),fsr2l
  4004  000B0A  C0BF  FFDA         	movff	(writeCircularBuffer@buf+1),fsr2h
  4005  000B0E  CFDE F0C5          	movff	postinc2,??_writeCircularBuffer+2+0
  4006  000B12  CFDD F0C6          	movff	postdec2,??_writeCircularBuffer+2+0+1
  4007  000B16  0100               	movlb	0	; () banked
  4008  000B18  51C3               	movf	(??_writeCircularBuffer+0+0)&0ffh,w
  4009  000B1A  0100               	movlb	0	; () banked
  4010  000B1C  25C5               	addwf	(??_writeCircularBuffer+2+0)&0ffh,w
  4011  000B1E  6ED9               	movwf	c:fsr2l
  4012  000B20  0100               	movlb	0	; () banked
  4013  000B22  51C4               	movf	(??_writeCircularBuffer+0+1)&0ffh,w
  4014  000B24  0100               	movlb	0	; () banked
  4015  000B26  21C6               	addwfc	(??_writeCircularBuffer+2+1)&0ffh,w
  4016  000B28  6EDA               	movwf	1+c:fsr2l
  4017  000B2A  0100               	movlb	0	; () banked
  4018  000B2C  C0C0  FFDF         	movff	(writeCircularBuffer@data),indf2
  4019                           opt subtitle "HI-TECH Software Omniscient Code Generator (Lite mode) build 49521"
  4020                           
  4021                           opt pagewidth 120
  4022  000B30  0100               	movlb	0	; () banked
  4023  000B32  EE20 F004          	lfsr	2,04h
  4024  000B36  0100               	movlb	0	; () banked
  4025  000B38  51BE               	movf	((writeCircularBuffer@buf))&0ffh,w
  4026  000B3A  26D9               	addwf	fsr2l
  4027  000B3C  0100               	movlb	0	; () banked
  4028  000B3E  51BF               	movf	((writeCircularBuffer@buf+1))&0ffh,w
  4029  000B40  22DA               	addwfc	fsr2h
  4030  000B42  2ADE               	incf	postinc2
  4031  000B44  0E00               	movlw	0
  4032  000B46  22DD               	addwfc	postdec2
  4033                           opt subtitle "HI-TECH Software Omniscient Code Generator (Lite mode) build 49521"
  4034                           
  4035  000B48                     l2078:; BSR set to: 0
  4036                           opt subtitle "HI-TECH Software Omniscient Code Generator (Lite mode) build 49521"
  4037                           
  4038  000B48  0100               	movlb	0	; () banked
  4039  000B4A  EE20 F002          	lfsr	2,02h
  4040  000B4E  0100               	movlb	0	; () banked
  4041  000B50  51BE               	movf	((writeCircularBuffer@buf))&0ffh,w
  4042  000B52  26D9               	addwf	fsr2l
  4043  000B54  0100               	movlb	0	; () banked
  4044  000B56  51BF               	movf	((writeCircularBuffer@buf+1))&0ffh,w
  4045  000B58  22DA               	addwfc	fsr2h
  4046  000B5A  0100               	movlb	0	; () banked
  4047  000B5C  EE10 F004          	lfsr	1,04h
  4048  000B60  0100               	movlb	0	; () banked
  4049  000B62  51BE               	movf	((writeCircularBuffer@buf))&0ffh,w
  4050  000B64  26E1               	addwf	fsr1l
  4051  000B66  0100               	movlb	0	; () banked
  4052  000B68  51BF               	movf	((writeCircularBuffer@buf+1))&0ffh,w
  4053  000B6A  22E2               	addwfc	fsr1h
  4054  000B6C  52E6               	movf	postinc1
  4055  000B6E  52DE               	movf	postinc2
  4056  000B70  50DD               	movf	postdec2,w
  4057  000B72  5CE5               	subwf	postdec1,w
  4058  000B74  E102               	bnz	u1885
  4059  000B76  50DF               	movf	indf2,w
  4060  000B78  5CE7               	subwf	indf1,w
  4061  000B7A                     u1885:
  4062                           opt subtitle "HI-TECH Software Omniscient Code Generator (Lite mode) build 49521"
  4063  000B7A  A0D8               	btfss	status,0
  4064  000B7C  D001               	goto	u1881
  4065  000B7E  D001               	goto	u1880
  4066  000B80                     u1881:
  4067  000B80  D00E               	goto	l2082
  4068  000B82                     u1880:
  4069                           opt subtitle "HI-TECH Software Omniscient Code Generator (Lite mode) build 49521"
  4070                           
  4071  000B82                     l2080:; BSR set to: 0
  4072                           opt subtitle "HI-TECH Software Omniscient Code Generator (Lite mode) build 49521"
  4073                           
  4074                           opt pagewidth 120
  4075  000B82  0100               	movlb	0	; () banked
  4076  000B84  EE20 F004          	lfsr	2,04h
  4077  000B88  0100               	movlb	0	; () banked
  4078  000B8A  51BE               	movf	((writeCircularBuffer@buf))&0ffh,w
  4079  000B8C  26D9               	addwf	fsr2l
  4080  000B8E  0100               	movlb	0	; () banked
  4081  000B90  51BF               	movf	((writeCircularBuffer@buf+1))&0ffh,w
  4082  000B92  22DA               	addwfc	fsr2h
  4083  000B94  0E00               	movlw	low(0)
  4084  000B96  6EDE               	movwf	postinc2
  4085  000B98  0E00               	movlw	high(0)
  4086  000B9A  6EDD               	movwf	postdec2
  4087  000B9C  D000               	goto	l2082
  4088                           opt subtitle "HI-TECH Software Omniscient Code Generator (Lite mode) build 49521"
  4089                           
  4090  000B9E                     l274:; BSR set to: 0
  4091                           opt subtitle "HI-TECH Software Omniscient Code Generator (Lite mode) build 49521"
  4092                           
  4093                           opt pagewidth 120
  4094  000B9E                     l2082:; BSR set to: 0
  4095                           opt subtitle "HI-TECH Software Omniscient Code Generator (Lite mode) build 49521"
  4096                           
  4097                           opt pagewidth 120
  4098  000B9E  C0C1  FFD9         	movff	(writeCircularBuffer@error),fsr2l
  4099  000BA2  C0C2  FFDA         	movff	(writeCircularBuffer@error+1),fsr2h
  4100  000BA6  0E00               	movlw	low(0)
  4101  000BA8  6EDF               	movwf	indf2
  4102                           opt subtitle "HI-TECH Software Omniscient Code Generator (Lite mode) build 49521"
  4103                           
  4104  000BAA                     l273:
  4105  000BAA  0012               	return
  4106                           opt subtitle "HI-TECH Software Omniscient Code Generator (Lite mode) build 49521"
  4107                           
  4108  000BAC                     	__end_of_writeCircularBuffer:
  4109                           opt subtitle "HI-TECH Software Omniscient Code Generator (Lite mode) build 49521"
  4110                           
  4111                           opt pagewidth 120
  4112                           
  4113                           	opt lm
  4114                           
  4115                           	processor	18LF14K22
  4116                           porta	equ	0F80h
  4117                           portb	equ	0F81h
  4118                           portc	equ	0F82h
  4119                           portd	equ	0F83h
  4120                           porte	equ	0F84h
  4121                           lata	equ	0F89h
  4122                           latb	equ	0F8Ah
  4123                           latc	equ	0F8Bh
  4124                           latd	equ	0F8Ch
  4125                           late	equ	0F8Dh
  4126                           trisa	equ	0F92h
  4127                           trisb	equ	0F93h
  4128                           trisc	equ	0F94h
  4129                           trisd	equ	0F95h
  4130                           trise	equ	0F96h
  4131                           pie1	equ	0F9Dh
  4132                           pir1	equ	0F9Eh
  4133                           ipr1	equ	0F9Fh
  4134                           pie2	equ	0FA0h
  4135                           pir2	equ	0FA1h
  4136                           ipr2	equ	0FA2h
  4137                           t3con	equ	0FB1h
  4138                           tmr3l	equ	0FB2h
  4139                           tmr3h	equ	0FB3h
  4140                           ccp1con	equ	0FBDh
  4141                           ccpr1l	equ	0FBEh
  4142                           ccpr1h	equ	0FBFh
  4143                           adcon1	equ	0FC1h
  4144                           adcon0	equ	0FC2h
  4145  000EB0                     __ptext9:
  4146                           opt subtitle "HI-TECH Software Omniscient Code Generator (Lite mode) build 49521"
  4147                           
  4148                           opt pagewidth 120
  4149                           
  4150  0000                     	__size_of_circularBufferFull	equ	__end_of_circularBufferFull-_circularBufferFull
  4151                           opt subtitle "HI-TECH Software Omniscient Code Generator (Lite mode) build 49521"
  4152  000EB0                     _circularBufferFull:
  4153                           opt subtitle "HI-TECH Software Omniscient Code Generator (Lite mode) build 49521"
  4154                           
  4155                           opt pagewidth 120
  4156  000EB0                     l2084:
  4157                           opt subtitle "HI-TECH Software Omniscient Code Generator (Lite mode) build 49521"
  4158  000EB0  0100               	movlb	0	; () banked
  4159  000EB2  EE20 F004          	lfsr	2,04h
  4160  000EB6  0100               	movlb	0	; () banked
  4161  000EB8  51BA               	movf	((circularBufferFull@buf))&0ffh,w
  4162  000EBA  26D9               	addwf	fsr2l
  4163  000EBC  0100               	movlb	0	; () banked
  4164  000EBE  51BB               	movf	((circularBufferFull@buf+1))&0ffh,w
  4165  000EC0  22DA               	addwfc	fsr2h
  4166  000EC2  0100               	movlb	0	; () banked
  4167  000EC4  CFDE F0BC          	movff	postinc2,(circularBufferFull@headTemp)
  4168  000EC8  0100               	movlb	0	; () banked
  4169  000ECA  CFDD F0BD          	movff	postdec2,(circularBufferFull@headTemp+1)
  4170                           opt subtitle "HI-TECH Software Omniscient Code Generator (Lite mode) build 49521"
  4171                           
  4172  000ECE                     l2086:; BSR set to: 0
  4173                           opt subtitle "HI-TECH Software Omniscient Code Generator (Lite mode) build 49521"
  4174                           
  4175  000ECE  0100               	movlb	0	; () banked
  4176  000ED0  EE20 F002          	lfsr	2,02h
  4177  000ED4  0100               	movlb	0	; () banked
  4178  000ED6  51BA               	movf	((circularBufferFull@buf))&0ffh,w
  4179  000ED8  26D9               	addwf	fsr2l
  4180  000EDA  0100               	movlb	0	; () banked
  4181  000EDC  51BB               	movf	((circularBufferFull@buf+1))&0ffh,w
  4182  000EDE  22DA               	addwfc	fsr2h
  4183  000EE0  0100               	movlb	0	; () banked
  4184  000EE2  EE10  F0BC         	lfsr	1,(circularBufferFull@headTemp)
  4185  000EE6  2AE6               	incf	postinc1
  4186  000EE8  0E00               	movlw	0
  4187  000EEA  22E5               	addwfc	postdec1
  4188  000EEC  52E6               	movf	postinc1
  4189  000EEE  52DE               	movf	postinc2
  4190  000EF0  50DD               	movf	postdec2,w
  4191  000EF2  5CE5               	subwf	postdec1,w
  4192  000EF4  E102               	bnz	u1895
  4193  000EF6  50DF               	movf	indf2,w
  4194  000EF8  5CE7               	subwf	indf1,w
  4195  000EFA                     u1895:
  4196                           opt subtitle "HI-TECH Software Omniscient Code Generator (Lite mode) build 49521"
  4197  000EFA  A0D8               	btfss	status,0
  4198  000EFC  D001               	goto	u1891
  4199  000EFE  D001               	goto	u1890
  4200  000F00                     u1891:
  4201  000F00  D008               	goto	l2090
  4202  000F02                     u1890:
  4203                           opt subtitle "HI-TECH Software Omniscient Code Generator (Lite mode) build 49521"
  4204                           
  4205  000F02                     l2088:; BSR set to: 0
  4206                           opt subtitle "HI-TECH Software Omniscient Code Generator (Lite mode) build 49521"
  4207                           
  4208                           opt pagewidth 120
  4209  000F02  0E00               	movlw	high(0)
  4210  000F04  0100               	movlb	0	; () banked
  4211  000F06  0100               	movlb	0	; () banked
  4212  000F08  6FBD               	movwf	((circularBufferFull@headTemp+1))&0ffh
  4213  000F0A  0E00               	movlw	low(0)
  4214  000F0C  0100               	movlb	0	; () banked
  4215  000F0E  6FBC               	movwf	((circularBufferFull@headTemp))&0ffh
  4216  000F10  D000               	goto	l2090
  4217                           opt subtitle "HI-TECH Software Omniscient Code Generator (Lite mode) build 49521"
  4218                           
  4219  000F12                     l277:; BSR set to: 0
  4220                           opt subtitle "HI-TECH Software Omniscient Code Generator (Lite mode) build 49521"
  4221                           
  4222                           opt pagewidth 120
  4223  000F12                     l2090:; BSR set to: 0
  4224                           opt subtitle "HI-TECH Software Omniscient Code Generator (Lite mode) build 49521"
  4225                           
  4226                           opt pagewidth 120
  4227  000F12  0100               	movlb	0	; () banked
  4228  000F14  EE20 F006          	lfsr	2,06h
  4229  000F18  0100               	movlb	0	; () banked
  4230  000F1A  51BA               	movf	((circularBufferFull@buf))&0ffh,w
  4231  000F1C  26D9               	addwf	fsr2l
  4232  000F1E  0100               	movlb	0	; () banked
  4233  000F20  51BB               	movf	((circularBufferFull@buf+1))&0ffh,w
  4234  000F22  22DA               	addwfc	fsr2h
  4235  000F24  0100               	movlb	0	; () banked
  4236  000F26  52DE               	movf	postinc2
  4237  000F28  0100               	movlb	0	; () banked
  4238  000F2A  51BD               	movf	((circularBufferFull@headTemp+1))&0ffh,w
  4239  000F2C  18DD               	xorwf	postdec2,w
  4240  000F2E  0100               	movlb	0	; () banked
  4241  000F30  C0BC  FFE8         	movff	(circularBufferFull@headTemp),wreg
  4242  000F34  B4D8               	btfsc	status,2
  4243  000F36  18DF               	xorwf	indf2,w
  4244                           opt subtitle "HI-TECH Software Omniscient Code Generator (Lite mode) build 49521"
  4245  000F38  B4D8               	btfsc	status,2
  4246  000F3A  D001               	goto	u1901
  4247  000F3C  D002               	goto	u1900
  4248  000F3E                     u1901:
  4249  000F3E  0E01               	movlw	1
  4250  000F40  D001               	goto	u1906
  4251  000F42                     u1900:
  4252  000F42  0E00               	movlw	0
  4253  000F44                     u1906:
  4254  000F44  D000               	goto	l278
  4255                           opt subtitle "HI-TECH Software Omniscient Code Generator (Lite mode) build 49521"
  4256  000F46                     l2092:; BSR set to: 0
  4257                           opt subtitle "HI-TECH Software Omniscient Code Generator (Lite mode) build 49521"
  4258                           
  4259                           opt pagewidth 120
  4260  000F46                     l278:; BSR set to: 0
  4261                           opt subtitle "HI-TECH Software Omniscient Code Generator (Lite mode) build 49521"
  4262  000F46  0012               	return
  4263                           opt subtitle "HI-TECH Software Omniscient Code Generator (Lite mode) build 49521"
  4264                           
  4265  000F48                     	__end_of_circularBufferFull:
  4266                           opt subtitle "HI-TECH Software Omniscient Code Generator (Lite mode) build 49521"
  4267                           
  4268                           opt pagewidth 120
  4269                           
  4270                           	opt lm
  4271                           
  4272                           	processor	18LF14K22
  4273                           porta	equ	0F80h
  4274                           portb	equ	0F81h
  4275                           portc	equ	0F82h
  4276                           portd	equ	0F83h
  4277                           porte	equ	0F84h
  4278                           lata	equ	0F89h
  4279                           latb	equ	0F8Ah
  4280                           latc	equ	0F8Bh
  4281                           latd	equ	0F8Ch
  4282                           late	equ	0F8Dh
  4283                           trisa	equ	0F92h
  4284                           trisb	equ	0F93h
  4285                           trisc	equ	0F94h
  4286                           trisd	equ	0F95h
  4287                           trise	equ	0F96h
  4288                           pie1	equ	0F9Dh
  4289                           pir1	equ	0F9Eh
  4290                           ipr1	equ	0F9Fh
  4291                           pie2	equ	0FA0h
  4292                           pir2	equ	0FA1h
  4293                           ipr2	equ	0FA2h
  4294                           t3con	equ	0FB1h
  4295                           tmr3l	equ	0FB2h
  4296                           tmr3h	equ	0FB3h
  4297                           ccp1con	equ	0FBDh
  4298                           ccpr1l	equ	0FBEh
  4299                           ccpr1h	equ	0FBFh
  4300                           adcon1	equ	0FC1h
  4301  001136                     __ptext10:
  4302                           opt subtitle "HI-TECH Software Omniscient Code Generator (Lite mode) build 49521"
  4303                           
  4304                           opt pagewidth 120
  4305                           
  4306  0000                     	__size_of___wmul	equ	__end_of___wmul-___wmul
  4307                           opt subtitle "HI-TECH Software Omniscient Code Generator (Lite mode) build 49521"
  4308  001136                     ___wmul:; BSR set to: 0
  4309                           opt subtitle "HI-TECH Software Omniscient Code Generator (Lite mode) build 49521"
  4310                           
  4311                           opt pagewidth 120
  4312                           
  4313  001136                     l2094:
  4314  001136  0E00               	movlw	high(0)
  4315  001138  0100               	movlb	0	; () banked
  4316  00113A  0100               	movlb	0	; () banked
  4317  00113C  6FBF               	movwf	((___wmul@product+1))&0ffh
  4318  00113E  0E00               	movlw	low(0)
  4319  001140  0100               	movlb	0	; () banked
  4320  001142  6FBE               	movwf	((___wmul@product))&0ffh
  4321  001144  D000               	goto	l2096
  4322                           opt subtitle "HI-TECH Software Omniscient Code Generator (Lite mode) build 49521"
  4323                           
  4324  001146                     l778:; BSR set to: 0
  4325                           opt subtitle "HI-TECH Software Omniscient Code Generator (Lite mode) build 49521"
  4326                           
  4327                           opt pagewidth 120
  4328  001146                     l2096:; BSR set to: 0
  4329                           opt subtitle "HI-TECH Software Omniscient Code Generator (Lite mode) build 49521"
  4330  001146  0100               	movlb	0	; () banked
  4331                           opt subtitle "HI-TECH Software Omniscient Code Generator (Lite mode) build 49521"
  4332  001148  0100               	movlb	0	; () banked
  4333  00114A  A1BA               	btfss	((___wmul@multiplier))&0ffh,(0)&7
  4334  00114C  D001               	goto	u1911
  4335  00114E  D001               	goto	u1910
  4336  001150                     u1911:
  4337  001150  D00D               	goto	l2100
  4338  001152                     u1910:
  4339                           opt subtitle "HI-TECH Software Omniscient Code Generator (Lite mode) build 49521"
  4340                           
  4341  001152                     l2098:; BSR set to: 0
  4342                           opt subtitle "HI-TECH Software Omniscient Code Generator (Lite mode) build 49521"
  4343  001152  0100               	movlb	0	; () banked
  4344  001154  0100               	movlb	0	; () banked
  4345  001156  51BC               	movf	((___wmul@multiplicand))&0ffh,w
  4346  001158  0100               	movlb	0	; () banked
  4347  00115A  0100               	movlb	0	; () banked
  4348  00115C  27BE               	addwf	((___wmul@product))&0ffh
  4349  00115E  0100               	movlb	0	; () banked
  4350  001160  0100               	movlb	0	; () banked
  4351  001162  51BD               	movf	((___wmul@multiplicand+1))&0ffh,w
  4352  001164  0100               	movlb	0	; () banked
  4353  001166  0100               	movlb	0	; () banked
  4354  001168  23BF               	addwfc	((___wmul@product+1))&0ffh
  4355                           opt subtitle "HI-TECH Software Omniscient Code Generator (Lite mode) build 49521"
  4356  00116A  D000               	goto	l2100
  4357                           opt subtitle "HI-TECH Software Omniscient Code Generator (Lite mode) build 49521"
  4358  00116C                     l779:; BSR set to: 0
  4359                           opt subtitle "HI-TECH Software Omniscient Code Generator (Lite mode) build 49521"
  4360                           
  4361                           opt pagewidth 120
  4362  00116C                     l2100:; BSR set to: 0
  4363                           opt subtitle "HI-TECH Software Omniscient Code Generator (Lite mode) build 49521"
  4364  00116C  0100               	movlb	0	; () banked
  4365  00116E  0100               	movlb	0	; () banked
  4366  001170  0100               	movlb	0	; () banked
  4367  001172  90D8               	bcf	status,0
  4368  001174  37BC               	rlcf	((___wmul@multiplicand))&0ffh
  4369  001176  37BD               	rlcf	((___wmul@multiplicand+1))&0ffh
  4370                           opt subtitle "HI-TECH Software Omniscient Code Generator (Lite mode) build 49521"
  4371                           
  4372  001178                     l2102:; BSR set to: 0
  4373                           opt subtitle "HI-TECH Software Omniscient Code Generator (Lite mode) build 49521"
  4374  001178  0100               	movlb	0	; () banked
  4375  00117A  0100               	movlb	0	; () banked
  4376  00117C  0100               	movlb	0	; () banked
  4377  00117E  90D8               	bcf	status,0
  4378  001180  33BB               	rrcf	((___wmul@multiplier+1))&0ffh
  4379  001182  33BA               	rrcf	((___wmul@multiplier))&0ffh
  4380                           opt subtitle "HI-TECH Software Omniscient Code Generator (Lite mode) build 49521"
  4381  001184  0100               	movlb	0	; () banked
  4382  001186  0100               	movlb	0	; () banked
  4383  001188  51BB               	movf	((___wmul@multiplier+1))&0ffh,w
  4384  00118A  11BA               	iorwf ((___wmul@multiplier))&0ffh,w
  4385                           opt subtitle "HI-TECH Software Omniscient Code Generator (Lite mode) build 49521"
  4386  00118C  A4D8               	btfss	status,2
  4387  00118E  D001               	goto	u1921
  4388  001190  D001               	goto	u1920
  4389  001192                     u1921:
  4390  001192  D7D9               	goto	l2096
  4391  001194                     u1920:
  4392                           opt subtitle "HI-TECH Software Omniscient Code Generator (Lite mode) build 49521"
  4393  001194                     l780:; BSR set to: 0
  4394                           opt subtitle "HI-TECH Software Omniscient Code Generator (Lite mode) build 49521"
  4395                           
  4396  001194  C0BE  F0BA         	movff	(___wmul@product),(?___wmul)
  4397  001198  C0BF  F0BB         	movff	(___wmul@product+1),(?___wmul+1)
  4398                           opt subtitle "HI-TECH Software Omniscient Code Generator (Lite mode) build 49521"
  4399                           
  4400  00119C                     l781:; BSR set to: 0
  4401                           opt subtitle "HI-TECH Software Omniscient Code Generator (Lite mode) build 49521"
  4402  00119C  0012               	return
  4403                           opt subtitle "HI-TECH Software Omniscient Code Generator (Lite mode) build 49521"
  4404                           
  4405  00119E                     	__end_of___wmul:
  4406                           opt subtitle "HI-TECH Software Omniscient Code Generator (Lite mode) build 49521"
  4407                           
  4408                           opt pagewidth 120
  4409                           
  4410                           	opt lm
  4411                           
  4412                           	processor	18LF14K22
  4413                           porta	equ	0F80h
  4414                           portb	equ	0F81h
  4415                           portc	equ	0F82h
  4416                           portd	equ	0F83h
  4417                           porte	equ	0F84h
  4418                           lata	equ	0F89h
  4419                           latb	equ	0F8Ah
  4420                           latc	equ	0F8Bh
  4421                           latd	equ	0F8Ch
  4422                           late	equ	0F8Dh
  4423                           trisa	equ	0F92h
  4424                           trisb	equ	0F93h
  4425                           trisc	equ	0F94h
  4426                           trisd	equ	0F95h
  4427                           trise	equ	0F96h
  4428                           pie1	equ	0F9Dh
  4429                           pir1	equ	0F9Eh
  4430                           ipr1	equ	0F9Fh
  4431                           pie2	equ	0FA0h
  4432                           pir2	equ	0FA1h
  4433                           ipr2	equ	0FA2h
  4434                           t3con	equ	0FB1h
  4435                           tmr3l	equ	0FB2h
  4436                           tmr3h	equ	0FB3h
  4437                           ccp1con	equ	0FBDh
  4438                           ccpr1l	equ	0FBEh
  4439                           ccpr1h	equ	0FBFh
  4440                           adcon1	equ	0FC1h
  4441                           adcon0	equ	0FC2h
  4442                           adresl	equ	0FC3h
  4443                           adresh	equ	0FC4h
  4444  000008                     __pintcode:
  4445                           opt subtitle "HI-TECH Software Omniscient Code Generator (Lite mode) build 49521"
  4446                           
  4447                           opt pagewidth 120
  4448                           
  4449  0000                     	__size_of_isr	equ	__end_of_isr-_isr
  4450                           opt subtitle "HI-TECH Software Omniscient Code Generator (Lite mode) build 49521"
  4451  000008                     _isr:; BSR set to: 0
  4452                           opt subtitle "HI-TECH Software Omniscient Code Generator (Lite mode) build 49521"
  4453                           
  4454  000008  CFFA F011          	movff	pclat+0,??_isr+1
  4455  00000C  CFFB F012          	movff	pclat+1,??_isr+2
  4456  000010  CFE9 F013          	movff	fsr0l+0,??_isr+3
  4457  000014  CFEA F014          	movff	fsr0h+0,??_isr+4
  4458  000018  CFE1 F015          	movff	fsr1l+0,??_isr+5
  4459  00001C  CFE2 F016          	movff	fsr1h+0,??_isr+6
  4460  000020  CFD9 F017          	movff	fsr2l+0,??_isr+7
  4461  000024  CFDA F018          	movff	fsr2h+0,??_isr+8
  4462  000028  CFF3 F019          	movff	prodl+0,??_isr+9
  4463  00002C  CFF4 F01A          	movff	prodh+0,??_isr+10
  4464  000030  CFF6 F01B          	movff	tblptrl+0,??_isr+11
  4465  000034  CFF7 F01C          	movff	tblptrh+0,??_isr+12
  4466  000038  CFF8 F01D          	movff	tblptru+0,??_isr+13
  4467  00003C  CFF5 F01E          	movff	tablat+0,??_isr+14
  4468                           opt subtitle "HI-TECH Software Omniscient Code Generator (Lite mode) build 49521"
  4469                           
  4470  000040                     i2l2142:
  4471                           opt subtitle "HI-TECH Software Omniscient Code Generator (Lite mode) build 49521"
  4472                           
  4473  000040  AAF2               	btfss	((c:4082)),c,5	;volatile
  4474  000042  D001               	goto	i2u203_41
  4475  000044  D001               	goto	i2u203_40
  4476  000046                     i2u203_41:
  4477  000046  D018               	goto	i2l2154
  4478  000048                     i2u203_40:
  4479                           opt subtitle "HI-TECH Software Omniscient Code Generator (Lite mode) build 49521"
  4480  000048                     i2l2144:
  4481                           opt subtitle "HI-TECH Software Omniscient Code Generator (Lite mode) build 49521"
  4482  000048  A4F2               	btfss	((c:4082)),c,2	;volatile
  4483  00004A  D001               	goto	i2u204_41
  4484  00004C  D001               	goto	i2u204_40
  4485  00004E                     i2u204_41:
  4486  00004E  D014               	goto	i2l2154
  4487  000050                     i2u204_40:
  4488                           opt subtitle "HI-TECH Software Omniscient Code Generator (Lite mode) build 49521"
  4489                           
  4490  000050                     i2l2146:
  4491                           opt subtitle "HI-TECH Software Omniscient Code Generator (Lite mode) build 49521"
  4492                           
  4493  000050  94F2               	bcf	((c:4082)),c,2	;volatile
  4494                           opt subtitle "HI-TECH Software Omniscient Code Generator (Lite mode) build 49521"
  4495                           
  4496  000052                     i2l2148:
  4497                           opt subtitle "HI-TECH Software Omniscient Code Generator (Lite mode) build 49521"
  4498  000052  0E00               	movlw	high(083h)
  4499  000054  6ED7               	movwf	((c:4054+1)),c	;volatile
  4500  000056  0E83               	movlw	low(083h)
  4501  000058  6ED6               	movwf	((c:4054)),c	;volatile
  4502                           opt subtitle "HI-TECH Software Omniscient Code Generator (Lite mode) build 49521"
  4503                           
  4504  00005A                     i2l2150:
  4505                           opt subtitle "HI-TECH Software Omniscient Code Generator (Lite mode) build 49521"
  4506  00005A  0E01               	movlw	01h
  4507  00005C  0100               	movlb	0	; () banked
  4508  00005E  0100               	movlb	0	; () banked
  4509  000060  276E               	addwf	((_sysTick))&0ffh	;volatile
  4510  000062  0E00               	movlw	0
  4511  000064  0100               	movlb	0	; () banked
  4512  000066  236F               	addwfc	((_sysTick+1))&0ffh	;volatile
  4513  000068  0E00               	movlw	0
  4514  00006A  0100               	movlb	0	; () banked
  4515  00006C  2370               	addwfc	((_sysTick+2))&0ffh	;volatile
  4516  00006E  0E00               	movlw	0
  4517  000070  0100               	movlb	0	; () banked
  4518  000072  2371               	addwfc	((_sysTick+3))&0ffh	;volatile
  4519  000074  D0BE               	goto	i2l68
  4520                           opt subtitle "HI-TECH Software Omniscient Code Generator (Lite mode) build 49521"
  4521                           
  4522  000076                     i2l2152:; BSR set to: 0
  4523                           opt subtitle "HI-TECH Software Omniscient Code Generator (Lite mode) build 49521"
  4524                           
  4525  000076  D0BD               	goto	i2l68
  4526                           opt subtitle "HI-TECH Software Omniscient Code Generator (Lite mode) build 49521"
  4527                           
  4528  000078                     i2l67:; BSR set to: 0
  4529                           opt subtitle "HI-TECH Software Omniscient Code Generator (Lite mode) build 49521"
  4530                           
  4531                           opt pagewidth 120
  4532  000078                     i2l2154:
  4533                           opt subtitle "HI-TECH Software Omniscient Code Generator (Lite mode) build 49521"
  4534                           
  4535  000078  ECA4  F007         	call	_UARTISR	;wreg free
  4536                           opt subtitle "HI-TECH Software Omniscient Code Generator (Lite mode) build 49521"
  4537                           
  4538  00007C                     i2l2156:
  4539                           opt subtitle "HI-TECH Software Omniscient Code Generator (Lite mode) build 49521"
  4540  00007C  EC64  F003         	call	_STEPPERISR	;wreg free
  4541                           opt subtitle "HI-TECH Software Omniscient Code Generator (Lite mode) build 49521"
  4542                           
  4543  000080                     i2l2158:
  4544                           opt subtitle "HI-TECH Software Omniscient Code Generator (Lite mode) build 49521"
  4545                           
  4546                           opt pagewidth 120
  4547                           
  4548                           	opt lm
  4549                           
  4550                           	processor	18LF14K22
  4551                           porta	equ	0F80h
  4552                           portb	equ	0F81h
  4553  000080  0E00               	movlw	high((c:isr@e))
  4554  000082  6E0D               	movwf	((c:?_readUART+1)),c
  4555  000084  0E1F               	movlw	low((c:isr@e))
  4556  000086  6E0C               	movwf	((c:?_readUART)),c
  4557  000088  EC26  F009         	call	_readUART	;wreg free
  4558  00008C  6E20               	movwf	((c:isr@readVal)),c
  4559                           opt subtitle "HI-TECH Software Omniscient Code Generator (Lite mode) build 49521"
  4560                           
  4561  00008E                     i2l2160:
  4562                           opt subtitle "HI-TECH Software Omniscient Code Generator (Lite mode) build 49521"
  4563  00008E  661F               	tstfsz	((c:isr@e)),c
  4564  000090  D001               	goto	i2u205_41
  4565  000092  D001               	goto	i2u205_40
  4566  000094                     i2u205_41:
  4567  000094  D0AE               	goto	i2l68
  4568  000096                     i2u205_40:
  4569  000096  D09E               	goto	i2l2222
  4570                           opt subtitle "HI-TECH Software Omniscient Code Generator (Lite mode) build 49521"
  4571                           
  4572  000098                     i2l2162:
  4573                           opt subtitle "HI-TECH Software Omniscient Code Generator (Lite mode) build 49521"
  4574                           
  4575  000098  D09D               	goto	i2l2222
  4576                           opt subtitle "HI-TECH Software Omniscient Code Generator (Lite mode) build 49521"
  4577                           
  4578                           opt pagewidth 120
  4579                           
  4580  00009A                     i2l85:
  4581                           opt subtitle "HI-TECH Software Omniscient Code Generator (Lite mode) build 49521"
  4582                           
  4583  00009A                     i2l2164:
  4584                           opt subtitle "HI-TECH Software Omniscient Code Generator (Lite mode) build 49521"
  4585                           
  4586  00009A  0E00               	movlw	low(0)
  4587  00009C  0100               	movlb	0	; () banked
  4588  00009E  0100               	movlb	0	; () banked
  4589  0000A0  6F73               	movwf	((_keyReadyFlag))&0ffh	;volatile
  4590                           opt subtitle "HI-TECH Software Omniscient Code Generator (Lite mode) build 49521"
  4591                           
  4592  0000A2                     i2l2166:; BSR set to: 0
  4593                           opt subtitle "HI-TECH Software Omniscient Code Generator (Lite mode) build 49521"
  4594                           
  4595  0000A2  5020               	movf	((c:isr@readVal)),c,w
  4596  0000A4  0A02               	xorlw	2
  4597                           opt subtitle "HI-TECH Software Omniscient Code Generator (Lite mode) build 49521"
  4598  0000A6  B4D8               	btfsc	status,2
  4599  0000A8  D001               	goto	i2u206_41
  4600  0000AA  D001               	goto	i2u206_40
  4601  0000AC                     i2u206_41:
  4602  0000AC  D002               	goto	i2l2170
  4603  0000AE                     i2u206_40:
  4604  0000AE  D0A1               	goto	i2l68
  4605                           opt subtitle "HI-TECH Software Omniscient Code Generator (Lite mode) build 49521"
  4606                           
  4607  0000B0                     i2l2168:; BSR set to: 0
  4608                           opt subtitle "HI-TECH Software Omniscient Code Generator (Lite mode) build 49521"
  4609                           
  4610                           opt pagewidth 120
  4611  0000B0  D0A0               	goto	i2l68
  4612                           opt subtitle "HI-TECH Software Omniscient Code Generator (Lite mode) build 49521"
  4613                           
  4614  0000B2                     i2l86:; BSR set to: 0
  4615                           opt subtitle "HI-TECH Software Omniscient Code Generator (Lite mode) build 49521"
  4616                           
  4617                           opt pagewidth 120
  4618  0000B2                     i2l2170:; BSR set to: 0
  4619                           opt subtitle "HI-TECH Software Omniscient Code Generator (Lite mode) build 49521"
  4620                           
  4621                           opt pagewidth 120
  4622                           
  4623  0000B2  6E10               	movwf	(??_isr+0+0)&0ffh,c
  4624  0000B4  0E01               	movlw	low(01h)
  4625  0000B6  6E3B               	movwf	((c:isr@read_state)),c
  4626  0000B8  5010               	movf	(??_isr+0+0)&0ffh,c,w
  4627                           opt subtitle "HI-TECH Software Omniscient Code Generator (Lite mode) build 49521"
  4628                           
  4629  0000BA  6E10               	movwf	(??_isr+0+0)&0ffh,c
  4630  0000BC  0E00               	movlw	low(0)
  4631  0000BE  6E37               	movwf	((c:isr@field_count)),c
  4632  0000C0  5010               	movf	(??_isr+0+0)&0ffh,c,w
  4633                           opt subtitle "HI-TECH Software Omniscient Code Generator (Lite mode) build 49521"
  4634                           
  4635  0000C2  6E10               	movwf	(??_isr+0+0)&0ffh,c
  4636  0000C4  0E00               	movlw	low(0)
  4637  0000C6  6E39               	movwf	((c:isr@msb_lsb)),c
  4638  0000C8  5010               	movf	(??_isr+0+0)&0ffh,c,w
  4639  0000CA  D093               	goto	i2l68
  4640                           opt subtitle "HI-TECH Software Omniscient Code Generator (Lite mode) build 49521"
  4641                           
  4642  0000CC                     i2l87:; BSR set to: 0
  4643                           opt subtitle "HI-TECH Software Omniscient Code Generator (Lite mode) build 49521"
  4644                           
  4645                           opt pagewidth 120
  4646                           
  4647  0000CC  D092               	goto	i2l68
  4648                           opt subtitle "HI-TECH Software Omniscient Code Generator (Lite mode) build 49521"
  4649                           
  4650                           opt pagewidth 120
  4651                           
  4652  0000CE                     i2l89:; BSR set to: 0
  4653                           opt subtitle "HI-TECH Software Omniscient Code Generator (Lite mode) build 49521"
  4654                           
  4655                           opt pagewidth 120
  4656  0000CE                     i2l2172:
  4657                           opt subtitle "HI-TECH Software Omniscient Code Generator (Lite mode) build 49521"
  4658                           
  4659  0000CE  5039               	movf	((c:isr@msb_lsb)),c,w
  4660  0000D0  B4D8               	btfsc	status,2
  4661  0000D2  D001               	goto	i2u207_41
  4662  0000D4  D001               	goto	i2u207_40
  4663  0000D6                     i2u207_41:
  4664  0000D6  D025               	goto	i2l2190
  4665  0000D8                     i2u207_40:
  4666                           opt subtitle "HI-TECH Software Omniscient Code Generator (Lite mode) build 49521"
  4667                           
  4668  0000D8                     i2l2174:
  4669                           opt subtitle "HI-TECH Software Omniscient Code Generator (Lite mode) build 49521"
  4670                           
  4671  0000D8  3A3A               	swapf	((c:isr@read_byte)),c
  4672  0000DA  0EF0               	movlw	240
  4673  0000DC  163A               	andwf	((c:isr@read_byte)),c
  4674                           opt subtitle "HI-TECH Software Omniscient Code Generator (Lite mode) build 49521"
  4675                           
  4676                           opt pagewidth 120
  4677  0000DE                     i2l2176:
  4678                           opt subtitle "HI-TECH Software Omniscient Code Generator (Lite mode) build 49521"
  4679  0000DE  C020  F001         	movff	(c:isr@readVal),(c:?_asciiDigitToInt)
  4680  0000E2  ECEB  F007         	call	_asciiDigitToInt	;wreg free
  4681  0000E6  5001               	movf	(0+?_asciiDigitToInt),c,w
  4682  0000E8  123A               	iorwf	((c:isr@read_byte)),c
  4683                           opt subtitle "HI-TECH Software Omniscient Code Generator (Lite mode) build 49521"
  4684                           
  4685  0000EA                     i2l2178:
  4686                           opt subtitle "HI-TECH Software Omniscient Code Generator (Lite mode) build 49521"
  4687  0000EA  6E10               	movwf	(??_isr+0+0)&0ffh,c
  4688  0000EC  0E00               	movlw	low(0)
  4689  0000EE  6E39               	movwf	((c:isr@msb_lsb)),c
  4690  0000F0  5010               	movf	(??_isr+0+0)&0ffh,c,w
  4691                           opt subtitle "HI-TECH Software Omniscient Code Generator (Lite mode) build 49521"
  4692                           
  4693  0000F2                     i2l2180:
  4694                           opt subtitle "HI-TECH Software Omniscient Code Generator (Lite mode) build 49521"
  4695  0000F2  5037               	movf	((c:isr@field_count)),c,w
  4696  0000F4  0D01               	mullw	01h
  4697  0000F6  0100               	movlb	0	; () banked
  4698  0000F8  0EB4               	movlw	low(_keyName)
  4699  0000FA  24F3               	addwf	(prodl),c,w
  4700  0000FC  6ED9               	movwf	c:fsr2l
  4701  0000FE  0100               	movlb	0	; () banked
  4702  000100  0E00               	movlw	high(_keyName)
  4703  000102  20F4               	addwfc	prod+1,w
  4704  000104  6EDA               	movwf	1+c:fsr2l
  4705  000106  C03A  FFDF         	movff	(c:isr@read_byte),indf2
  4706                           opt subtitle "HI-TECH Software Omniscient Code Generator (Lite mode) build 49521"
  4707                           
  4708                           opt pagewidth 120
  4709  00010A                     i2l2182:; BSR set to: 0
  4710                           opt subtitle "HI-TECH Software Omniscient Code Generator (Lite mode) build 49521"
  4711                           
  4712  00010A  6637               	tstfsz	((c:isr@field_count)),c
  4713  00010C  D001               	goto	i2u208_41
  4714  00010E  D001               	goto	i2u208_40
  4715  000110                     i2u208_41:
  4716  000110  D003               	goto	i2l2186
  4717  000112                     i2u208_40:
  4718                           opt subtitle "HI-TECH Software Omniscient Code Generator (Lite mode) build 49521"
  4719                           
  4720  000112                     i2l2184:; BSR set to: 0
  4721                           opt subtitle "HI-TECH Software Omniscient Code Generator (Lite mode) build 49521"
  4722                           
  4723                           opt pagewidth 120
  4724  000112  C03A  F035         	movff	(c:isr@read_byte),(c:isr@calcd_checksum)
  4725                           opt subtitle "HI-TECH Software Omniscient Code Generator (Lite mode) build 49521"
  4726                           
  4727  000116  D003               	goto	i2l2188
  4728                           opt subtitle "HI-TECH Software Omniscient Code Generator (Lite mode) build 49521"
  4729                           
  4730  000118                     i2l91:; BSR set to: 0
  4731                           opt subtitle "HI-TECH Software Omniscient Code Generator (Lite mode) build 49521"
  4732                           
  4733                           opt pagewidth 120
  4734  000118                     i2l2186:; BSR set to: 0
  4735                           opt subtitle "HI-TECH Software Omniscient Code Generator (Lite mode) build 49521"
  4736                           
  4737                           opt pagewidth 120
  4738                           
  4739  000118  503A               	movf	((c:isr@read_byte)),c,w
  4740  00011A  1A35               	xorwf	((c:isr@calcd_checksum)),c
  4741  00011C  D000               	goto	i2l2188
  4742                           opt subtitle "HI-TECH Software Omniscient Code Generator (Lite mode) build 49521"
  4743                           
  4744  00011E                     i2l92:; BSR set to: 0
  4745                           opt subtitle "HI-TECH Software Omniscient Code Generator (Lite mode) build 49521"
  4746                           
  4747                           opt pagewidth 120
  4748  00011E                     i2l2188:; BSR set to: 0
  4749                           opt subtitle "HI-TECH Software Omniscient Code Generator (Lite mode) build 49521"
  4750                           
  4751                           opt pagewidth 120
  4752  00011E  2A37               	incf	((c:isr@field_count)),c
  4753                           opt subtitle "HI-TECH Software Omniscient Code Generator (Lite mode) build 49521"
  4754                           
  4755  000120  D00B               	goto	i2l2194
  4756                           opt subtitle "HI-TECH Software Omniscient Code Generator (Lite mode) build 49521"
  4757                           
  4758  000122                     i2l90:; BSR set to: 0
  4759                           opt subtitle "HI-TECH Software Omniscient Code Generator (Lite mode) build 49521"
  4760                           
  4761                           opt pagewidth 120
  4762  000122                     i2l2190:
  4763                           opt subtitle "HI-TECH Software Omniscient Code Generator (Lite mode) build 49521"
  4764                           
  4765                           opt pagewidth 120
  4766  000122  C020  F001         	movff	(c:isr@readVal),(c:?_asciiDigitToInt)
  4767  000126  ECEB  F007         	call	_asciiDigitToInt	;wreg free
  4768  00012A  5001               	movf	(0+?_asciiDigitToInt),c,w
  4769  00012C  6E3A               	movwf	((c:isr@read_byte)),c
  4770                           opt subtitle "HI-TECH Software Omniscient Code Generator (Lite mode) build 49521"
  4771                           
  4772  00012E                     i2l2192:
  4773                           opt subtitle "HI-TECH Software Omniscient Code Generator (Lite mode) build 49521"
  4774  00012E  6E10               	movwf	(??_isr+0+0)&0ffh,c
  4775  000130  0E01               	movlw	low(01h)
  4776  000132  6E39               	movwf	((c:isr@msb_lsb)),c
  4777  000134  5010               	movf	(??_isr+0+0)&0ffh,c,w
  4778  000136  D000               	goto	i2l2194
  4779                           opt subtitle "HI-TECH Software Omniscient Code Generator (Lite mode) build 49521"
  4780                           
  4781  000138                     i2l93:
  4782                           opt subtitle "HI-TECH Software Omniscient Code Generator (Lite mode) build 49521"
  4783                           
  4784  000138                     i2l2194:
  4785                           opt subtitle "HI-TECH Software Omniscient Code Generator (Lite mode) build 49521"
  4786                           
  4787  000138  5037               	movf	((c:isr@field_count)),c,w
  4788  00013A  0A05               	xorlw	5
  4789                           opt subtitle "HI-TECH Software Omniscient Code Generator (Lite mode) build 49521"
  4790  00013C  A4D8               	btfss	status,2
  4791  00013E  D001               	goto	i2u209_41
  4792  000140  D001               	goto	i2u209_40
  4793  000142                     i2u209_41:
  4794  000142  D057               	goto	i2l68
  4795  000144                     i2u209_40:
  4796                           opt subtitle "HI-TECH Software Omniscient Code Generator (Lite mode) build 49521"
  4797                           
  4798  000144                     i2l2196:
  4799                           opt subtitle "HI-TECH Software Omniscient Code Generator (Lite mode) build 49521"
  4800                           
  4801  000144  6E10               	movwf	(??_isr+0+0)&0ffh,c
  4802  000146  0E02               	movlw	low(02h)
  4803  000148  6E3B               	movwf	((c:isr@read_state)),c
  4804  00014A  5010               	movf	(??_isr+0+0)&0ffh,c,w
  4805                           opt subtitle "HI-TECH Software Omniscient Code Generator (Lite mode) build 49521"
  4806                           
  4807  00014C  6E10               	movwf	(??_isr+0+0)&0ffh,c
  4808  00014E  0E00               	movlw	low(0)
  4809  000150  6E37               	movwf	((c:isr@field_count)),c
  4810  000152  5010               	movf	(??_isr+0+0)&0ffh,c,w
  4811                           opt subtitle "HI-TECH Software Omniscient Code Generator (Lite mode) build 49521"
  4812                           
  4813  000154  6E10               	movwf	(??_isr+0+0)&0ffh,c
  4814  000156  0E00               	movlw	low(0)
  4815  000158  6E39               	movwf	((c:isr@msb_lsb)),c
  4816  00015A  5010               	movf	(??_isr+0+0)&0ffh,c,w
  4817  00015C  D04A               	goto	i2l68
  4818                           opt subtitle "HI-TECH Software Omniscient Code Generator (Lite mode) build 49521"
  4819                           
  4820  00015E                     i2l94:
  4821                           opt subtitle "HI-TECH Software Omniscient Code Generator (Lite mode) build 49521"
  4822                           
  4823                           opt pagewidth 120
  4824  00015E  D049               	goto	i2l68
  4825                           opt subtitle "HI-TECH Software Omniscient Code Generator (Lite mode) build 49521"
  4826                           
  4827                           opt pagewidth 120
  4828                           
  4829  000160                     i2l95:
  4830                           opt subtitle "HI-TECH Software Omniscient Code Generator (Lite mode) build 49521"
  4831                           
  4832                           opt pagewidth 120
  4833  000160  6637               	tstfsz	((c:isr@field_count)),c
  4834  000162  D001               	goto	i2u210_41
  4835  000164  D001               	goto	i2u210_40
  4836  000166                     i2u210_41:
  4837  000166  D007               	goto	i2l2200
  4838  000168                     i2u210_40:
  4839                           opt subtitle "HI-TECH Software Omniscient Code Generator (Lite mode) build 49521"
  4840                           
  4841  000168                     i2l2198:
  4842                           opt subtitle "HI-TECH Software Omniscient Code Generator (Lite mode) build 49521"
  4843                           
  4844  000168  C020  F001         	movff	(c:isr@readVal),(c:?_asciiDigitToInt)
  4845  00016C  ECEB  F007         	call	_asciiDigitToInt	;wreg free
  4846  000170  5001               	movf	(0+?_asciiDigitToInt),c,w
  4847  000172  6E36               	movwf	((c:isr@checksum)),c
  4848                           opt subtitle "HI-TECH Software Omniscient Code Generator (Lite mode) build 49521"
  4849                           
  4850  000174  D00A               	goto	i2l2204
  4851                           opt subtitle "HI-TECH Software Omniscient Code Generator (Lite mode) build 49521"
  4852                           
  4853  000176                     i2l96:
  4854                           opt subtitle "HI-TECH Software Omniscient Code Generator (Lite mode) build 49521"
  4855                           
  4856  000176                     i2l2200:
  4857                           opt subtitle "HI-TECH Software Omniscient Code Generator (Lite mode) build 49521"
  4858                           
  4859                           opt pagewidth 120
  4860  000176  3A36               	swapf	((c:isr@checksum)),c
  4861  000178  0EF0               	movlw	240
  4862  00017A  1636               	andwf	((c:isr@checksum)),c
  4863                           opt subtitle "HI-TECH Software Omniscient Code Generator (Lite mode) build 49521"
  4864                           
  4865                           opt pagewidth 120
  4866  00017C                     i2l2202:
  4867                           opt subtitle "HI-TECH Software Omniscient Code Generator (Lite mode) build 49521"
  4868  00017C  C020  F001         	movff	(c:isr@readVal),(c:?_asciiDigitToInt)
  4869  000180  ECEB  F007         	call	_asciiDigitToInt	;wreg free
  4870  000184  5001               	movf	(0+?_asciiDigitToInt),c,w
  4871  000186  1236               	iorwf	((c:isr@checksum)),c
  4872  000188  D000               	goto	i2l2204
  4873                           opt subtitle "HI-TECH Software Omniscient Code Generator (Lite mode) build 49521"
  4874                           
  4875  00018A                     i2l97:
  4876                           opt subtitle "HI-TECH Software Omniscient Code Generator (Lite mode) build 49521"
  4877                           
  4878  00018A                     i2l2204:
  4879                           opt subtitle "HI-TECH Software Omniscient Code Generator (Lite mode) build 49521"
  4880                           
  4881  00018A  2A37               	incf	((c:isr@field_count)),c
  4882                           opt subtitle "HI-TECH Software Omniscient Code Generator (Lite mode) build 49521"
  4883                           
  4884  00018C                     i2l2206:
  4885                           opt subtitle "HI-TECH Software Omniscient Code Generator (Lite mode) build 49521"
  4886  00018C  5037               	movf	((c:isr@field_count)),c,w
  4887  00018E  0A02               	xorlw	2
  4888                           opt subtitle "HI-TECH Software Omniscient Code Generator (Lite mode) build 49521"
  4889  000190  A4D8               	btfss	status,2
  4890  000192  D001               	goto	i2u211_41
  4891  000194  D001               	goto	i2u211_40
  4892  000196                     i2u211_41:
  4893  000196  D02D               	goto	i2l68
  4894  000198                     i2u211_40:
  4895                           opt subtitle "HI-TECH Software Omniscient Code Generator (Lite mode) build 49521"
  4896                           
  4897  000198                     i2l2208:
  4898                           opt subtitle "HI-TECH Software Omniscient Code Generator (Lite mode) build 49521"
  4899                           
  4900  000198  6E10               	movwf	(??_isr+0+0)&0ffh,c
  4901  00019A  0E03               	movlw	low(03h)
  4902  00019C  6E3B               	movwf	((c:isr@read_state)),c
  4903  00019E  5010               	movf	(??_isr+0+0)&0ffh,c,w
  4904                           opt subtitle "HI-TECH Software Omniscient Code Generator (Lite mode) build 49521"
  4905                           
  4906  0001A0  6E10               	movwf	(??_isr+0+0)&0ffh,c
  4907  0001A2  0E00               	movlw	low(0)
  4908  0001A4  6E37               	movwf	((c:isr@field_count)),c
  4909  0001A6  5010               	movf	(??_isr+0+0)&0ffh,c,w
  4910  0001A8  D024               	goto	i2l68
  4911                           opt subtitle "HI-TECH Software Omniscient Code Generator (Lite mode) build 49521"
  4912                           
  4913  0001AA                     i2l98:
  4914                           opt subtitle "HI-TECH Software Omniscient Code Generator (Lite mode) build 49521"
  4915                           
  4916                           opt pagewidth 120
  4917  0001AA  D023               	goto	i2l68
  4918                           opt subtitle "HI-TECH Software Omniscient Code Generator (Lite mode) build 49521"
  4919                           
  4920                           opt pagewidth 120
  4921                           
  4922  0001AC                     i2l99:
  4923  0001AC  D001               	goto	i2l2212
  4924                           opt subtitle "HI-TECH Software Omniscient Code Generator (Lite mode) build 49521"
  4925                           
  4926  0001AE                     i2l2210:
  4927  0001AE  D000               	goto	i2l2212
  4928                           opt subtitle "HI-TECH Software Omniscient Code Generator (Lite mode) build 49521"
  4929                           
  4930                           opt pagewidth 120
  4931  0001B0                     i2l100:
  4932                           opt subtitle "HI-TECH Software Omniscient Code Generator (Lite mode) build 49521"
  4933                           
  4934  0001B0                     i2l2212:
  4935                           opt subtitle "HI-TECH Software Omniscient Code Generator (Lite mode) build 49521"
  4936                           
  4937  0001B0  2A37               	incf	((c:isr@field_count)),c
  4938                           opt subtitle "HI-TECH Software Omniscient Code Generator (Lite mode) build 49521"
  4939                           
  4940  0001B2                     i2l2214:
  4941                           opt subtitle "HI-TECH Software Omniscient Code Generator (Lite mode) build 49521"
  4942  0001B2  5037               	movf	((c:isr@field_count)),c,w
  4943  0001B4  0A03               	xorlw	3
  4944                           opt subtitle "HI-TECH Software Omniscient Code Generator (Lite mode) build 49521"
  4945  0001B6  A4D8               	btfss	status,2
  4946  0001B8  D001               	goto	i2u212_41
  4947  0001BA  D001               	goto	i2u212_40
  4948  0001BC                     i2u212_41:
  4949  0001BC  D01A               	goto	i2l68
  4950  0001BE                     i2u212_40:
  4951                           opt subtitle "HI-TECH Software Omniscient Code Generator (Lite mode) build 49521"
  4952                           
  4953  0001BE                     i2l2216:
  4954                           opt subtitle "HI-TECH Software Omniscient Code Generator (Lite mode) build 49521"
  4955                           
  4956  0001BE  0E01               	movlw	low(01h)
  4957  0001C0  0100               	movlb	0	; () banked
  4958  0001C2  0100               	movlb	0	; () banked
  4959  0001C4  6F73               	movwf	((_keyReadyFlag))&0ffh	;volatile
  4960                           opt subtitle "HI-TECH Software Omniscient Code Generator (Lite mode) build 49521"
  4961                           
  4962  0001C6                     i2l2218:; BSR set to: 0
  4963                           opt subtitle "HI-TECH Software Omniscient Code Generator (Lite mode) build 49521"
  4964                           
  4965  0001C6  6E10               	movwf	(??_isr+0+0)&0ffh,c
  4966  0001C8  0E00               	movlw	low(0)
  4967  0001CA  6E3B               	movwf	((c:isr@read_state)),c
  4968  0001CC  5010               	movf	(??_isr+0+0)&0ffh,c,w
  4969  0001CE  D011               	goto	i2l68
  4970                           opt subtitle "HI-TECH Software Omniscient Code Generator (Lite mode) build 49521"
  4971                           
  4972  0001D0                     i2l101:; BSR set to: 0
  4973                           opt subtitle "HI-TECH Software Omniscient Code Generator (Lite mode) build 49521"
  4974                           
  4975                           opt pagewidth 120
  4976                           
  4977  0001D0  D010               	goto	i2l68
  4978                           opt subtitle "HI-TECH Software Omniscient Code Generator (Lite mode) build 49521"
  4979                           
  4980  0001D2                     i2l2220:; BSR set to: 0
  4981                           opt subtitle "HI-TECH Software Omniscient Code Generator (Lite mode) build 49521"
  4982                           
  4983                           opt pagewidth 120
  4984  0001D2  D00F               	goto	i2l68
  4985                           opt subtitle "HI-TECH Software Omniscient Code Generator (Lite mode) build 49521"
  4986                           
  4987  0001D4                     i2l84:; BSR set to: 0
  4988                           opt subtitle "HI-TECH Software Omniscient Code Generator (Lite mode) build 49521"
  4989                           
  4990  0001D4                     i2l2222:
  4991  0001D4  503B               	movf	((c:isr@read_state)),c,w
  4992                           opt subtitle "HI-TECH Software Omniscient Code Generator (Lite mode) build 49521"
  4993                           
  4994                           opt pagewidth 120
  4995                           
  4996                           	opt lm
  4997                           
  4998                           	processor	18LF14K22
  4999  0001D6  0A00               	xorlw	0^0	; case 0
  5000  0001D8  B4D8               	skipnz
  5001  0001DA  D75F               	goto	i2l2164
  5002  0001DC  0A01               	xorlw	1^0	; case 1
  5003  0001DE  B4D8               	skipnz
  5004  0001E0  D776               	goto	i2l2172
  5005  0001E2  0A03               	xorlw	2^1	; case 2
  5006  0001E4  B4D8               	skipnz
  5007  0001E6  D7BC               	goto	i2l95
  5008  0001E8  0A01               	xorlw	3^2	; case 3
  5009  0001EA  B4D8               	skipnz
  5010  0001EC  D7E1               	goto	i2l2212
  5011  0001EE  D001               	goto	i2l68
  5012                           opt subtitle "HI-TECH Software Omniscient Code Generator (Lite mode) build 49521"
  5013                           
  5014                           opt pagewidth 120
  5015  0001F0                     i2l88:
  5016  0001F0  D000               	goto	i2l68
  5017                           opt subtitle "HI-TECH Software Omniscient Code Generator (Lite mode) build 49521"
  5018                           
  5019  0001F2                     i2l83:
  5020                           opt subtitle "HI-TECH Software Omniscient Code Generator (Lite mode) build 49521"
  5021                           
  5022  0001F2                     i2l68:
  5023  0001F2  C01E  FFF5         	movff	??_isr+14,tablat+0
  5024  0001F6  C01D  FFF8         	movff	??_isr+13,tblptru+0
  5025  0001FA  C01C  FFF7         	movff	??_isr+12,tblptrh+0
  5026  0001FE  C01B  FFF6         	movff	??_isr+11,tblptrl+0
  5027  000202  C01A  FFF4         	movff	??_isr+10,prodh+0
  5028  000206  C019  FFF3         	movff	??_isr+9,prodl+0
  5029  00020A  C018  FFDA         	movff	??_isr+8,fsr2h+0
  5030  00020E  C017  FFD9         	movff	??_isr+7,fsr2l+0
  5031  000212  C016  FFE2         	movff	??_isr+6,fsr1h+0
  5032  000216  C015  FFE1         	movff	??_isr+5,fsr1l+0
  5033  00021A  C014  FFEA         	movff	??_isr+4,fsr0h+0
  5034  00021E  C013  FFE9         	movff	??_isr+3,fsr0l+0
  5035  000222  C012  FFFB         	movff	??_isr+2,pclat+1
  5036  000226  C011  FFFA         	movff	??_isr+1,pclat+0
  5037  00022A  0011               	retfie f
  5038                           opt subtitle "HI-TECH Software Omniscient Code Generator (Lite mode) build 49521"
  5039                           
  5040  00022C                     	__end_of_isr:
  5041                           opt subtitle "HI-TECH Software Omniscient Code Generator (Lite mode) build 49521"
  5042                           
  5043                           opt pagewidth 120
  5044                           
  5045                           	opt lm
  5046                           
  5047                           	processor	18LF14K22
  5048                           porta	equ	0F80h
  5049                           portb	equ	0F81h
  5050                           portc	equ	0F82h
  5051                           portd	equ	0F83h
  5052                           porte	equ	0F84h
  5053                           lata	equ	0F89h
  5054                           latb	equ	0F8Ah
  5055                           latc	equ	0F8Bh
  5056                           latd	equ	0F8Ch
  5057                           late	equ	0F8Dh
  5058                           trisa	equ	0F92h
  5059                           trisb	equ	0F93h
  5060                           trisc	equ	0F94h
  5061                           trisd	equ	0F95h
  5062                           trise	equ	0F96h
  5063                           pie1	equ	0F9Dh
  5064                           pir1	equ	0F9Eh
  5065                           ipr1	equ	0F9Fh
  5066                           pie2	equ	0FA0h
  5067                           pir2	equ	0FA1h
  5068                           ipr2	equ	0FA2h
  5069                           t3con	equ	0FB1h
  5070                           tmr3l	equ	0FB2h
  5071                           tmr3h	equ	0FB3h
  5072                           ccp1con	equ	0FBDh
  5073                           ccpr1l	equ	0FBEh
  5074  0006C8                     __ptext12:
  5075                           opt subtitle "HI-TECH Software Omniscient Code Generator (Lite mode) build 49521"
  5076                           
  5077                           opt pagewidth 120
  5078                           
  5079  0000                     	__size_of_STEPPERISR	equ	__end_of_STEPPERISR-_STEPPERISR
  5080                           opt subtitle "HI-TECH Software Omniscient Code Generator (Lite mode) build 49521"
  5081  0006C8                     _STEPPERISR:
  5082                           opt subtitle "HI-TECH Software Omniscient Code Generator (Lite mode) build 49521"
  5083                           
  5084                           opt pagewidth 120
  5085  0006C8                     i2l1414:
  5086                           opt subtitle "HI-TECH Software Omniscient Code Generator (Lite mode) build 49521"
  5087                           
  5088  0006C8  A09E               	btfss	((c:3998)),c,0	;volatile
  5089  0006CA  D001               	goto	i2u90_41
  5090  0006CC  D001               	goto	i2u90_40
  5091  0006CE                     i2u90_41:
  5092  0006CE  D17B               	goto	i2l260
  5093  0006D0                     i2u90_40:
  5094                           opt subtitle "HI-TECH Software Omniscient Code Generator (Lite mode) build 49521"
  5095  0006D0                     i2l1416:
  5096                           opt subtitle "HI-TECH Software Omniscient Code Generator (Lite mode) build 49521"
  5097  0006D0  A09D               	btfss	((c:3997)),c,0	;volatile
  5098  0006D2  D001               	goto	i2u91_41
  5099  0006D4  D001               	goto	i2u91_40
  5100  0006D6                     i2u91_41:
  5101  0006D6  D177               	goto	i2l260
  5102  0006D8                     i2u91_40:
  5103                           opt subtitle "HI-TECH Software Omniscient Code Generator (Lite mode) build 49521"
  5104                           
  5105  0006D8                     i2l1418:
  5106                           opt subtitle "HI-TECH Software Omniscient Code Generator (Lite mode) build 49521"
  5107                           
  5108  0006D8  909E               	bcf	((c:3998)),c,0	;volatile
  5109                           opt subtitle "HI-TECH Software Omniscient Code Generator (Lite mode) build 49521"
  5110                           
  5111  0006DA  C02D  FFCE         	movff	(c:_speed),(c:4046)	;volatile
  5112  0006DE  C02E  FFCF         	movff	(c:_speed+1),(c:4046+1)	;volatile
  5113                           opt subtitle "HI-TECH Software Omniscient Code Generator (Lite mode) build 49521"
  5114                           
  5115  0006E2  D157               	goto	i2l1462
  5116                           opt subtitle "HI-TECH Software Omniscient Code Generator (Lite mode) build 49521"
  5117                           
  5118                           opt pagewidth 120
  5119                           
  5120  0006E4                     i2l238:
  5121                           opt subtitle "HI-TECH Software Omniscient Code Generator (Lite mode) build 49521"
  5122                           
  5123  0006E4                     i2l1420:
  5124                           opt subtitle "HI-TECH Software Omniscient Code Generator (Lite mode) build 49521"
  5125                           
  5126  0006E4  C023  F001         	movff	0+((c:_motor_pins)+02h),??_STEPPERISR+0+0
  5127  0006E8  0E01               	movlw	(01h)&0ffh
  5128  0006EA  6E02               	movwf	(??_STEPPERISR+1+0)&0ffh,c
  5129  0006EC  2A01               	incf	(??_STEPPERISR+0+0),c
  5130  0006EE  D002               	goto	i2u92_44
  5131  0006F0                     i2u92_45:
  5132  0006F0  90D8               	bcf	status,0
  5133  0006F2  3602               	rlcf	((??_STEPPERISR+1+0)),c
  5134  0006F4                     i2u92_44:
  5135  0006F4  2E01               	decfsz	(??_STEPPERISR+0+0),c
  5136  0006F6  D7FC               	goto	i2u92_45
  5137  0006F8  C021  FFD9         	movff	(c:_motor_pins),fsr2l
  5138  0006FC  C022  FFDA         	movff	(c:_motor_pins+1),fsr2h
  5139  000700  5002               	movf	((??_STEPPERISR+1+0)),c,w
  5140  000702  12DF               	iorwf	indf2
  5141                           opt subtitle "HI-TECH Software Omniscient Code Generator (Lite mode) build 49521"
  5142                           
  5143  000704  C026  F001         	movff	0+((c:_motor_pins)+05h),??_STEPPERISR+0+0
  5144  000708  0E01               	movlw	(01h)&0ffh
  5145  00070A  6E02               	movwf	(??_STEPPERISR+1+0)&0ffh,c
  5146  00070C  2A01               	incf	(??_STEPPERISR+0+0),c
  5147  00070E  D002               	goto	i2u93_44
  5148  000710                     i2u93_45:
  5149  000710  90D8               	bcf	status,0
  5150  000712  3602               	rlcf	((??_STEPPERISR+1+0)),c
  5151  000714                     i2u93_44:
  5152  000714  2E01               	decfsz	(??_STEPPERISR+0+0),c
  5153  000716  D7FC               	goto	i2u93_45
  5154  000718  5002               	movf	((??_STEPPERISR+1+0)),c,w
  5155  00071A  0AFF               	xorlw	0ffh
  5156  00071C  6E03               	movwf	(??_STEPPERISR+2+0)&0ffh,c
  5157  00071E  C024  FFD9         	movff	0+((c:_motor_pins)+03h),fsr2l
  5158  000722  C025  FFDA         	movff	1+((c:_motor_pins)+03h),fsr2h
  5159  000726  5003               	movf	((??_STEPPERISR+2+0)),c,w
  5160  000728  16DF               	andwf	indf2
  5161                           opt subtitle "HI-TECH Software Omniscient Code Generator (Lite mode) build 49521"
  5162                           
  5163  00072A  C029  F001         	movff	0+((c:_motor_pins)+08h),??_STEPPERISR+0+0
  5164  00072E  0E01               	movlw	(01h)&0ffh
  5165  000730  6E02               	movwf	(??_STEPPERISR+1+0)&0ffh,c
  5166  000732  2A01               	incf	(??_STEPPERISR+0+0),c
  5167  000734  D002               	goto	i2u94_44
  5168  000736                     i2u94_45:
  5169  000736  90D8               	bcf	status,0
  5170  000738  3602               	rlcf	((??_STEPPERISR+1+0)),c
  5171  00073A                     i2u94_44:
  5172  00073A  2E01               	decfsz	(??_STEPPERISR+0+0),c
  5173  00073C  D7FC               	goto	i2u94_45
  5174  00073E  C027  FFD9         	movff	0+((c:_motor_pins)+06h),fsr2l
  5175  000742  C028  FFDA         	movff	1+((c:_motor_pins)+06h),fsr2h
  5176  000746  5002               	movf	((??_STEPPERISR+1+0)),c,w
  5177  000748  12DF               	iorwf	indf2
  5178                           opt subtitle "HI-TECH Software Omniscient Code Generator (Lite mode) build 49521"
  5179                           
  5180  00074A  C02C  F001         	movff	0+((c:_motor_pins)+0Bh),??_STEPPERISR+0+0
  5181  00074E  0E01               	movlw	(01h)&0ffh
  5182  000750  6E02               	movwf	(??_STEPPERISR+1+0)&0ffh,c
  5183  000752  2A01               	incf	(??_STEPPERISR+0+0),c
  5184  000754  D002               	goto	i2u95_44
  5185  000756                     i2u95_45:
  5186  000756  90D8               	bcf	status,0
  5187  000758  3602               	rlcf	((??_STEPPERISR+1+0)),c
  5188  00075A                     i2u95_44:
  5189  00075A  2E01               	decfsz	(??_STEPPERISR+0+0),c
  5190  00075C  D7FC               	goto	i2u95_45
  5191  00075E  5002               	movf	((??_STEPPERISR+1+0)),c,w
  5192  000760  0AFF               	xorlw	0ffh
  5193  000762  6E03               	movwf	(??_STEPPERISR+2+0)&0ffh,c
  5194  000764  C02A  FFD9         	movff	0+((c:_motor_pins)+09h),fsr2l
  5195  000768  C02B  FFDA         	movff	1+((c:_motor_pins)+09h),fsr2h
  5196  00076C  5003               	movf	((??_STEPPERISR+2+0)),c,w
  5197  00076E  16DF               	andwf	indf2
  5198                           opt subtitle "HI-TECH Software Omniscient Code Generator (Lite mode) build 49521"
  5199                           
  5200  000770  D006               	goto	i2l1428
  5201                           opt subtitle "HI-TECH Software Omniscient Code Generator (Lite mode) build 49521"
  5202                           
  5203                           opt pagewidth 120
  5204                           
  5205  000772                     i2l240:
  5206                           opt subtitle "HI-TECH Software Omniscient Code Generator (Lite mode) build 49521"
  5207                           
  5208  000772                     i2l1422:
  5209                           opt subtitle "HI-TECH Software Omniscient Code Generator (Lite mode) build 49521"
  5210                           
  5211  000772  2A31               	incf	((c:_currentStep)),c	;volatile
  5212                           opt subtitle "HI-TECH Software Omniscient Code Generator (Lite mode) build 49521"
  5213                           
  5214  000774  D11C               	goto	i2l1464
  5215                           opt subtitle "HI-TECH Software Omniscient Code Generator (Lite mode) build 49521"
  5216                           
  5217                           opt pagewidth 120
  5218                           
  5219  000776                     i2l242:
  5220                           opt subtitle "HI-TECH Software Omniscient Code Generator (Lite mode) build 49521"
  5221                           
  5222  000776                     i2l1424:
  5223                           opt subtitle "HI-TECH Software Omniscient Code Generator (Lite mode) build 49521"
  5224                           
  5225  000776  0E03               	movlw	low(03h)
  5226  000778  6E31               	movwf	((c:_currentStep)),c	;volatile
  5227                           opt subtitle "HI-TECH Software Omniscient Code Generator (Lite mode) build 49521"
  5228                           
  5229  00077A  D119               	goto	i2l1464
  5230                           opt subtitle "HI-TECH Software Omniscient Code Generator (Lite mode) build 49521"
  5231                           
  5232  00077C                     i2l1426:
  5233                           opt subtitle "HI-TECH Software Omniscient Code Generator (Lite mode) build 49521"
  5234                           
  5235  00077C  D118               	goto	i2l1464
  5236                           opt subtitle "HI-TECH Software Omniscient Code Generator (Lite mode) build 49521"
  5237                           
  5238  00077E                     i2l239:
  5239                           opt subtitle "HI-TECH Software Omniscient Code Generator (Lite mode) build 49521"
  5240  00077E                     i2l1428:
  5241  00077E  5032               	movf	((c:_direction)),c,w	;volatile
  5242                           opt subtitle "HI-TECH Software Omniscient Code Generator (Lite mode) build 49521"
  5243                           
  5244                           opt pagewidth 120
  5245                           
  5246                           	opt lm
  5247                           
  5248                           	processor	18LF14K22
  5249  000780  0A00               	xorlw	0^0	; case 0
  5250  000782  B4D8               	skipnz
  5251  000784  D7F6               	goto	i2l1422
  5252  000786  0A01               	xorlw	1^0	; case 1
  5253  000788  B4D8               	skipnz
  5254  00078A  D7F5               	goto	i2l1424
  5255  00078C  D110               	goto	i2l1464
  5256                           opt subtitle "HI-TECH Software Omniscient Code Generator (Lite mode) build 49521"
  5257                           
  5258                           opt pagewidth 120
  5259  00078E                     i2l241:
  5260                           opt subtitle "HI-TECH Software Omniscient Code Generator (Lite mode) build 49521"
  5261                           
  5262  00078E  D10F               	goto	i2l1464
  5263                           opt subtitle "HI-TECH Software Omniscient Code Generator (Lite mode) build 49521"
  5264                           
  5265                           opt pagewidth 120
  5266                           
  5267  000790                     i2l244:
  5268                           opt subtitle "HI-TECH Software Omniscient Code Generator (Lite mode) build 49521"
  5269                           
  5270  000790                     i2l1430:
  5271                           opt subtitle "HI-TECH Software Omniscient Code Generator (Lite mode) build 49521"
  5272                           
  5273  000790  C023  F001         	movff	0+((c:_motor_pins)+02h),??_STEPPERISR+0+0
  5274  000794  0E01               	movlw	(01h)&0ffh
  5275  000796  6E02               	movwf	(??_STEPPERISR+1+0)&0ffh,c
  5276  000798  2A01               	incf	(??_STEPPERISR+0+0),c
  5277  00079A  D002               	goto	i2u96_44
  5278  00079C                     i2u96_45:
  5279  00079C  90D8               	bcf	status,0
  5280  00079E  3602               	rlcf	((??_STEPPERISR+1+0)),c
  5281  0007A0                     i2u96_44:
  5282  0007A0  2E01               	decfsz	(??_STEPPERISR+0+0),c
  5283  0007A2  D7FC               	goto	i2u96_45
  5284  0007A4  C021  FFD9         	movff	(c:_motor_pins),fsr2l
  5285  0007A8  C022  FFDA         	movff	(c:_motor_pins+1),fsr2h
  5286  0007AC  5002               	movf	((??_STEPPERISR+1+0)),c,w
  5287  0007AE  12DF               	iorwf	indf2
  5288                           opt subtitle "HI-TECH Software Omniscient Code Generator (Lite mode) build 49521"
  5289                           
  5290  0007B0  C026  F001         	movff	0+((c:_motor_pins)+05h),??_STEPPERISR+0+0
  5291  0007B4  0E01               	movlw	(01h)&0ffh
  5292  0007B6  6E02               	movwf	(??_STEPPERISR+1+0)&0ffh,c
  5293  0007B8  2A01               	incf	(??_STEPPERISR+0+0),c
  5294  0007BA  D002               	goto	i2u97_44
  5295  0007BC                     i2u97_45:
  5296  0007BC  90D8               	bcf	status,0
  5297  0007BE  3602               	rlcf	((??_STEPPERISR+1+0)),c
  5298  0007C0                     i2u97_44:
  5299  0007C0  2E01               	decfsz	(??_STEPPERISR+0+0),c
  5300  0007C2  D7FC               	goto	i2u97_45
  5301  0007C4  5002               	movf	((??_STEPPERISR+1+0)),c,w
  5302  0007C6  0AFF               	xorlw	0ffh
  5303  0007C8  6E03               	movwf	(??_STEPPERISR+2+0)&0ffh,c
  5304  0007CA  C024  FFD9         	movff	0+((c:_motor_pins)+03h),fsr2l
  5305  0007CE  C025  FFDA         	movff	1+((c:_motor_pins)+03h),fsr2h
  5306  0007D2  5003               	movf	((??_STEPPERISR+2+0)),c,w
  5307  0007D4  16DF               	andwf	indf2
  5308                           opt subtitle "HI-TECH Software Omniscient Code Generator (Lite mode) build 49521"
  5309                           
  5310  0007D6  C029  F001         	movff	0+((c:_motor_pins)+08h),??_STEPPERISR+0+0
  5311  0007DA  0E01               	movlw	(01h)&0ffh
  5312  0007DC  6E02               	movwf	(??_STEPPERISR+1+0)&0ffh,c
  5313  0007DE  2A01               	incf	(??_STEPPERISR+0+0),c
  5314  0007E0  D002               	goto	i2u98_44
  5315  0007E2                     i2u98_45:
  5316  0007E2  90D8               	bcf	status,0
  5317  0007E4  3602               	rlcf	((??_STEPPERISR+1+0)),c
  5318  0007E6                     i2u98_44:
  5319  0007E6  2E01               	decfsz	(??_STEPPERISR+0+0),c
  5320  0007E8  D7FC               	goto	i2u98_45
  5321  0007EA  5002               	movf	((??_STEPPERISR+1+0)),c,w
  5322  0007EC  0AFF               	xorlw	0ffh
  5323  0007EE  6E03               	movwf	(??_STEPPERISR+2+0)&0ffh,c
  5324  0007F0  C027  FFD9         	movff	0+((c:_motor_pins)+06h),fsr2l
  5325  0007F4  C028  FFDA         	movff	1+((c:_motor_pins)+06h),fsr2h
  5326  0007F8  5003               	movf	((??_STEPPERISR+2+0)),c,w
  5327  0007FA  16DF               	andwf	indf2
  5328                           opt subtitle "HI-TECH Software Omniscient Code Generator (Lite mode) build 49521"
  5329                           
  5330  0007FC  C02C  F001         	movff	0+((c:_motor_pins)+0Bh),??_STEPPERISR+0+0
  5331  000800  0E01               	movlw	(01h)&0ffh
  5332  000802  6E02               	movwf	(??_STEPPERISR+1+0)&0ffh,c
  5333  000804  2A01               	incf	(??_STEPPERISR+0+0),c
  5334  000806  D002               	goto	i2u99_44
  5335  000808                     i2u99_45:
  5336  000808  90D8               	bcf	status,0
  5337  00080A  3602               	rlcf	((??_STEPPERISR+1+0)),c
  5338  00080C                     i2u99_44:
  5339  00080C  2E01               	decfsz	(??_STEPPERISR+0+0),c
  5340  00080E  D7FC               	goto	i2u99_45
  5341  000810  C02A  FFD9         	movff	0+((c:_motor_pins)+09h),fsr2l
  5342  000814  C02B  FFDA         	movff	1+((c:_motor_pins)+09h),fsr2h
  5343  000818  5002               	movf	((??_STEPPERISR+1+0)),c,w
  5344  00081A  12DF               	iorwf	indf2
  5345                           opt subtitle "HI-TECH Software Omniscient Code Generator (Lite mode) build 49521"
  5346                           
  5347  00081C  D005               	goto	i2l1438
  5348                           opt subtitle "HI-TECH Software Omniscient Code Generator (Lite mode) build 49521"
  5349                           
  5350                           opt pagewidth 120
  5351                           
  5352  00081E                     i2l246:
  5353                           opt subtitle "HI-TECH Software Omniscient Code Generator (Lite mode) build 49521"
  5354                           
  5355  00081E                     i2l1432:
  5356                           opt subtitle "HI-TECH Software Omniscient Code Generator (Lite mode) build 49521"
  5357                           
  5358  00081E  2A31               	incf	((c:_currentStep)),c	;volatile
  5359                           opt subtitle "HI-TECH Software Omniscient Code Generator (Lite mode) build 49521"
  5360                           
  5361  000820  D0C6               	goto	i2l1464
  5362                           opt subtitle "HI-TECH Software Omniscient Code Generator (Lite mode) build 49521"
  5363                           
  5364                           opt pagewidth 120
  5365                           
  5366  000822                     i2l248:
  5367                           opt subtitle "HI-TECH Software Omniscient Code Generator (Lite mode) build 49521"
  5368                           
  5369  000822                     i2l1434:
  5370                           opt subtitle "HI-TECH Software Omniscient Code Generator (Lite mode) build 49521"
  5371                           
  5372  000822  0631               	decf	((c:_currentStep)),c	;volatile
  5373                           opt subtitle "HI-TECH Software Omniscient Code Generator (Lite mode) build 49521"
  5374                           
  5375  000824  D0C4               	goto	i2l1464
  5376                           opt subtitle "HI-TECH Software Omniscient Code Generator (Lite mode) build 49521"
  5377                           
  5378  000826                     i2l1436:
  5379                           opt subtitle "HI-TECH Software Omniscient Code Generator (Lite mode) build 49521"
  5380                           
  5381  000826  D0C3               	goto	i2l1464
  5382                           opt subtitle "HI-TECH Software Omniscient Code Generator (Lite mode) build 49521"
  5383                           
  5384  000828                     i2l245:
  5385                           opt subtitle "HI-TECH Software Omniscient Code Generator (Lite mode) build 49521"
  5386  000828                     i2l1438:
  5387  000828  5032               	movf	((c:_direction)),c,w	;volatile
  5388                           opt subtitle "HI-TECH Software Omniscient Code Generator (Lite mode) build 49521"
  5389                           
  5390                           opt pagewidth 120
  5391                           
  5392                           	opt lm
  5393                           
  5394                           	processor	18LF14K22
  5395  00082A  0A00               	xorlw	0^0	; case 0
  5396  00082C  B4D8               	skipnz
  5397  00082E  D7F7               	goto	i2l1432
  5398  000830  0A01               	xorlw	1^0	; case 1
  5399  000832  B4D8               	skipnz
  5400  000834  D7F6               	goto	i2l1434
  5401  000836  D0BB               	goto	i2l1464
  5402                           opt subtitle "HI-TECH Software Omniscient Code Generator (Lite mode) build 49521"
  5403                           
  5404                           opt pagewidth 120
  5405  000838                     i2l247:
  5406                           opt subtitle "HI-TECH Software Omniscient Code Generator (Lite mode) build 49521"
  5407                           
  5408  000838  D0BA               	goto	i2l1464
  5409                           opt subtitle "HI-TECH Software Omniscient Code Generator (Lite mode) build 49521"
  5410                           
  5411                           opt pagewidth 120
  5412                           
  5413  00083A                     i2l249:
  5414                           opt subtitle "HI-TECH Software Omniscient Code Generator (Lite mode) build 49521"
  5415                           
  5416  00083A                     i2l1440:
  5417                           opt subtitle "HI-TECH Software Omniscient Code Generator (Lite mode) build 49521"
  5418                           
  5419  00083A  C023  F001         	movff	0+((c:_motor_pins)+02h),??_STEPPERISR+0+0
  5420  00083E  0E01               	movlw	(01h)&0ffh
  5421  000840  6E02               	movwf	(??_STEPPERISR+1+0)&0ffh,c
  5422  000842  2A01               	incf	(??_STEPPERISR+0+0),c
  5423  000844  D002               	goto	i2u100_44
  5424  000846                     i2u100_45:
  5425  000846  90D8               	bcf	status,0
  5426  000848  3602               	rlcf	((??_STEPPERISR+1+0)),c
  5427  00084A                     i2u100_44:
  5428  00084A  2E01               	decfsz	(??_STEPPERISR+0+0),c
  5429  00084C  D7FC               	goto	i2u100_45
  5430  00084E  5002               	movf	((??_STEPPERISR+1+0)),c,w
  5431  000850  0AFF               	xorlw	0ffh
  5432  000852  6E03               	movwf	(??_STEPPERISR+2+0)&0ffh,c
  5433  000854  C021  FFD9         	movff	(c:_motor_pins),fsr2l
  5434  000858  C022  FFDA         	movff	(c:_motor_pins+1),fsr2h
  5435  00085C  5003               	movf	((??_STEPPERISR+2+0)),c,w
  5436  00085E  16DF               	andwf	indf2
  5437                           opt subtitle "HI-TECH Software Omniscient Code Generator (Lite mode) build 49521"
  5438                           
  5439  000860  C026  F001         	movff	0+((c:_motor_pins)+05h),??_STEPPERISR+0+0
  5440  000864  0E01               	movlw	(01h)&0ffh
  5441  000866  6E02               	movwf	(??_STEPPERISR+1+0)&0ffh,c
  5442  000868  2A01               	incf	(??_STEPPERISR+0+0),c
  5443  00086A  D002               	goto	i2u101_44
  5444  00086C                     i2u101_45:
  5445  00086C  90D8               	bcf	status,0
  5446  00086E  3602               	rlcf	((??_STEPPERISR+1+0)),c
  5447  000870                     i2u101_44:
  5448  000870  2E01               	decfsz	(??_STEPPERISR+0+0),c
  5449  000872  D7FC               	goto	i2u101_45
  5450  000874  C024  FFD9         	movff	0+((c:_motor_pins)+03h),fsr2l
  5451  000878  C025  FFDA         	movff	1+((c:_motor_pins)+03h),fsr2h
  5452  00087C  5002               	movf	((??_STEPPERISR+1+0)),c,w
  5453  00087E  12DF               	iorwf	indf2
  5454                           opt subtitle "HI-TECH Software Omniscient Code Generator (Lite mode) build 49521"
  5455                           
  5456  000880  C029  F001         	movff	0+((c:_motor_pins)+08h),??_STEPPERISR+0+0
  5457  000884  0E01               	movlw	(01h)&0ffh
  5458  000886  6E02               	movwf	(??_STEPPERISR+1+0)&0ffh,c
  5459  000888  2A01               	incf	(??_STEPPERISR+0+0),c
  5460  00088A  D002               	goto	i2u102_44
  5461  00088C                     i2u102_45:
  5462  00088C  90D8               	bcf	status,0
  5463  00088E  3602               	rlcf	((??_STEPPERISR+1+0)),c
  5464  000890                     i2u102_44:
  5465  000890  2E01               	decfsz	(??_STEPPERISR+0+0),c
  5466  000892  D7FC               	goto	i2u102_45
  5467  000894  5002               	movf	((??_STEPPERISR+1+0)),c,w
  5468  000896  0AFF               	xorlw	0ffh
  5469  000898  6E03               	movwf	(??_STEPPERISR+2+0)&0ffh,c
  5470  00089A  C027  FFD9         	movff	0+((c:_motor_pins)+06h),fsr2l
  5471  00089E  C028  FFDA         	movff	1+((c:_motor_pins)+06h),fsr2h
  5472  0008A2  5003               	movf	((??_STEPPERISR+2+0)),c,w
  5473  0008A4  16DF               	andwf	indf2
  5474                           opt subtitle "HI-TECH Software Omniscient Code Generator (Lite mode) build 49521"
  5475                           
  5476  0008A6  C02C  F001         	movff	0+((c:_motor_pins)+0Bh),??_STEPPERISR+0+0
  5477  0008AA  0E01               	movlw	(01h)&0ffh
  5478  0008AC  6E02               	movwf	(??_STEPPERISR+1+0)&0ffh,c
  5479  0008AE  2A01               	incf	(??_STEPPERISR+0+0),c
  5480  0008B0  D002               	goto	i2u103_44
  5481  0008B2                     i2u103_45:
  5482  0008B2  90D8               	bcf	status,0
  5483  0008B4  3602               	rlcf	((??_STEPPERISR+1+0)),c
  5484  0008B6                     i2u103_44:
  5485  0008B6  2E01               	decfsz	(??_STEPPERISR+0+0),c
  5486  0008B8  D7FC               	goto	i2u103_45
  5487  0008BA  C02A  FFD9         	movff	0+((c:_motor_pins)+09h),fsr2l
  5488  0008BE  C02B  FFDA         	movff	1+((c:_motor_pins)+09h),fsr2h
  5489  0008C2  5002               	movf	((??_STEPPERISR+1+0)),c,w
  5490  0008C4  12DF               	iorwf	indf2
  5491                           opt subtitle "HI-TECH Software Omniscient Code Generator (Lite mode) build 49521"
  5492                           
  5493  0008C6  D005               	goto	i2l1448
  5494                           opt subtitle "HI-TECH Software Omniscient Code Generator (Lite mode) build 49521"
  5495                           
  5496                           opt pagewidth 120
  5497                           
  5498  0008C8                     i2l251:
  5499                           opt subtitle "HI-TECH Software Omniscient Code Generator (Lite mode) build 49521"
  5500                           
  5501  0008C8                     i2l1442:
  5502                           opt subtitle "HI-TECH Software Omniscient Code Generator (Lite mode) build 49521"
  5503                           
  5504  0008C8  2A31               	incf	((c:_currentStep)),c	;volatile
  5505                           opt subtitle "HI-TECH Software Omniscient Code Generator (Lite mode) build 49521"
  5506                           
  5507  0008CA  D071               	goto	i2l1464
  5508                           opt subtitle "HI-TECH Software Omniscient Code Generator (Lite mode) build 49521"
  5509                           
  5510                           opt pagewidth 120
  5511                           
  5512  0008CC                     i2l253:
  5513                           opt subtitle "HI-TECH Software Omniscient Code Generator (Lite mode) build 49521"
  5514                           
  5515  0008CC                     i2l1444:
  5516                           opt subtitle "HI-TECH Software Omniscient Code Generator (Lite mode) build 49521"
  5517                           
  5518  0008CC  0631               	decf	((c:_currentStep)),c	;volatile
  5519                           opt subtitle "HI-TECH Software Omniscient Code Generator (Lite mode) build 49521"
  5520                           
  5521  0008CE  D06F               	goto	i2l1464
  5522                           opt subtitle "HI-TECH Software Omniscient Code Generator (Lite mode) build 49521"
  5523                           
  5524  0008D0                     i2l1446:
  5525                           opt subtitle "HI-TECH Software Omniscient Code Generator (Lite mode) build 49521"
  5526                           
  5527  0008D0  D06E               	goto	i2l1464
  5528                           opt subtitle "HI-TECH Software Omniscient Code Generator (Lite mode) build 49521"
  5529                           
  5530  0008D2                     i2l250:
  5531                           opt subtitle "HI-TECH Software Omniscient Code Generator (Lite mode) build 49521"
  5532  0008D2                     i2l1448:
  5533  0008D2  5032               	movf	((c:_direction)),c,w	;volatile
  5534                           opt subtitle "HI-TECH Software Omniscient Code Generator (Lite mode) build 49521"
  5535                           
  5536                           opt pagewidth 120
  5537                           
  5538                           	opt lm
  5539                           
  5540                           	processor	18LF14K22
  5541  0008D4  0A00               	xorlw	0^0	; case 0
  5542  0008D6  B4D8               	skipnz
  5543  0008D8  D7F7               	goto	i2l1442
  5544  0008DA  0A01               	xorlw	1^0	; case 1
  5545  0008DC  B4D8               	skipnz
  5546  0008DE  D7F6               	goto	i2l1444
  5547  0008E0  D066               	goto	i2l1464
  5548                           opt subtitle "HI-TECH Software Omniscient Code Generator (Lite mode) build 49521"
  5549                           
  5550                           opt pagewidth 120
  5551  0008E2                     i2l252:
  5552                           opt subtitle "HI-TECH Software Omniscient Code Generator (Lite mode) build 49521"
  5553                           
  5554  0008E2  D065               	goto	i2l1464
  5555                           opt subtitle "HI-TECH Software Omniscient Code Generator (Lite mode) build 49521"
  5556                           
  5557                           opt pagewidth 120
  5558                           
  5559  0008E4                     i2l254:
  5560                           opt subtitle "HI-TECH Software Omniscient Code Generator (Lite mode) build 49521"
  5561                           
  5562  0008E4                     i2l1450:
  5563                           opt subtitle "HI-TECH Software Omniscient Code Generator (Lite mode) build 49521"
  5564                           
  5565  0008E4  C023  F001         	movff	0+((c:_motor_pins)+02h),??_STEPPERISR+0+0
  5566  0008E8  0E01               	movlw	(01h)&0ffh
  5567  0008EA  6E02               	movwf	(??_STEPPERISR+1+0)&0ffh,c
  5568  0008EC  2A01               	incf	(??_STEPPERISR+0+0),c
  5569  0008EE  D002               	goto	i2u104_44
  5570  0008F0                     i2u104_45:
  5571  0008F0  90D8               	bcf	status,0
  5572  0008F2  3602               	rlcf	((??_STEPPERISR+1+0)),c
  5573  0008F4                     i2u104_44:
  5574  0008F4  2E01               	decfsz	(??_STEPPERISR+0+0),c
  5575  0008F6  D7FC               	goto	i2u104_45
  5576  0008F8  5002               	movf	((??_STEPPERISR+1+0)),c,w
  5577  0008FA  0AFF               	xorlw	0ffh
  5578  0008FC  6E03               	movwf	(??_STEPPERISR+2+0)&0ffh,c
  5579  0008FE  C021  FFD9         	movff	(c:_motor_pins),fsr2l
  5580  000902  C022  FFDA         	movff	(c:_motor_pins+1),fsr2h
  5581  000906  5003               	movf	((??_STEPPERISR+2+0)),c,w
  5582  000908  16DF               	andwf	indf2
  5583                           opt subtitle "HI-TECH Software Omniscient Code Generator (Lite mode) build 49521"
  5584                           
  5585  00090A  C026  F001         	movff	0+((c:_motor_pins)+05h),??_STEPPERISR+0+0
  5586  00090E  0E01               	movlw	(01h)&0ffh
  5587  000910  6E02               	movwf	(??_STEPPERISR+1+0)&0ffh,c
  5588  000912  2A01               	incf	(??_STEPPERISR+0+0),c
  5589  000914  D002               	goto	i2u105_44
  5590  000916                     i2u105_45:
  5591  000916  90D8               	bcf	status,0
  5592  000918  3602               	rlcf	((??_STEPPERISR+1+0)),c
  5593  00091A                     i2u105_44:
  5594  00091A  2E01               	decfsz	(??_STEPPERISR+0+0),c
  5595  00091C  D7FC               	goto	i2u105_45
  5596  00091E  C024  FFD9         	movff	0+((c:_motor_pins)+03h),fsr2l
  5597  000922  C025  FFDA         	movff	1+((c:_motor_pins)+03h),fsr2h
  5598  000926  5002               	movf	((??_STEPPERISR+1+0)),c,w
  5599  000928  12DF               	iorwf	indf2
  5600                           opt subtitle "HI-TECH Software Omniscient Code Generator (Lite mode) build 49521"
  5601                           
  5602  00092A  C029  F001         	movff	0+((c:_motor_pins)+08h),??_STEPPERISR+0+0
  5603  00092E  0E01               	movlw	(01h)&0ffh
  5604  000930  6E02               	movwf	(??_STEPPERISR+1+0)&0ffh,c
  5605  000932  2A01               	incf	(??_STEPPERISR+0+0),c
  5606  000934  D002               	goto	i2u106_44
  5607  000936                     i2u106_45:
  5608  000936  90D8               	bcf	status,0
  5609  000938  3602               	rlcf	((??_STEPPERISR+1+0)),c
  5610  00093A                     i2u106_44:
  5611  00093A  2E01               	decfsz	(??_STEPPERISR+0+0),c
  5612  00093C  D7FC               	goto	i2u106_45
  5613  00093E  C027  FFD9         	movff	0+((c:_motor_pins)+06h),fsr2l
  5614  000942  C028  FFDA         	movff	1+((c:_motor_pins)+06h),fsr2h
  5615  000946  5002               	movf	((??_STEPPERISR+1+0)),c,w
  5616  000948  12DF               	iorwf	indf2
  5617                           opt subtitle "HI-TECH Software Omniscient Code Generator (Lite mode) build 49521"
  5618                           
  5619  00094A  C02C  F001         	movff	0+((c:_motor_pins)+0Bh),??_STEPPERISR+0+0
  5620  00094E  0E01               	movlw	(01h)&0ffh
  5621  000950  6E02               	movwf	(??_STEPPERISR+1+0)&0ffh,c
  5622  000952  2A01               	incf	(??_STEPPERISR+0+0),c
  5623  000954  D002               	goto	i2u107_44
  5624  000956                     i2u107_45:
  5625  000956  90D8               	bcf	status,0
  5626  000958  3602               	rlcf	((??_STEPPERISR+1+0)),c
  5627  00095A                     i2u107_44:
  5628  00095A  2E01               	decfsz	(??_STEPPERISR+0+0),c
  5629  00095C  D7FC               	goto	i2u107_45
  5630  00095E  5002               	movf	((??_STEPPERISR+1+0)),c,w
  5631  000960  0AFF               	xorlw	0ffh
  5632  000962  6E03               	movwf	(??_STEPPERISR+2+0)&0ffh,c
  5633  000964  C02A  FFD9         	movff	0+((c:_motor_pins)+09h),fsr2l
  5634  000968  C02B  FFDA         	movff	1+((c:_motor_pins)+09h),fsr2h
  5635  00096C  5003               	movf	((??_STEPPERISR+2+0)),c,w
  5636  00096E  16DF               	andwf	indf2
  5637                           opt subtitle "HI-TECH Software Omniscient Code Generator (Lite mode) build 49521"
  5638                           
  5639  000970  D006               	goto	i2l1458
  5640                           opt subtitle "HI-TECH Software Omniscient Code Generator (Lite mode) build 49521"
  5641                           
  5642                           opt pagewidth 120
  5643                           
  5644  000972                     i2l256:
  5645                           opt subtitle "HI-TECH Software Omniscient Code Generator (Lite mode) build 49521"
  5646                           
  5647  000972                     i2l1452:
  5648                           opt subtitle "HI-TECH Software Omniscient Code Generator (Lite mode) build 49521"
  5649                           
  5650  000972  0E00               	movlw	low(0)
  5651  000974  6E31               	movwf	((c:_currentStep)),c	;volatile
  5652                           opt subtitle "HI-TECH Software Omniscient Code Generator (Lite mode) build 49521"
  5653                           
  5654  000976  D01B               	goto	i2l1464
  5655                           opt subtitle "HI-TECH Software Omniscient Code Generator (Lite mode) build 49521"
  5656                           
  5657                           opt pagewidth 120
  5658                           
  5659  000978                     i2l258:
  5660                           opt subtitle "HI-TECH Software Omniscient Code Generator (Lite mode) build 49521"
  5661                           
  5662  000978                     i2l1454:
  5663                           opt subtitle "HI-TECH Software Omniscient Code Generator (Lite mode) build 49521"
  5664                           
  5665  000978  0631               	decf	((c:_currentStep)),c	;volatile
  5666                           opt subtitle "HI-TECH Software Omniscient Code Generator (Lite mode) build 49521"
  5667                           
  5668  00097A  D019               	goto	i2l1464
  5669                           opt subtitle "HI-TECH Software Omniscient Code Generator (Lite mode) build 49521"
  5670                           
  5671  00097C                     i2l1456:
  5672                           opt subtitle "HI-TECH Software Omniscient Code Generator (Lite mode) build 49521"
  5673                           
  5674  00097C  D018               	goto	i2l1464
  5675                           opt subtitle "HI-TECH Software Omniscient Code Generator (Lite mode) build 49521"
  5676                           
  5677  00097E                     i2l255:
  5678                           opt subtitle "HI-TECH Software Omniscient Code Generator (Lite mode) build 49521"
  5679  00097E                     i2l1458:
  5680  00097E  5032               	movf	((c:_direction)),c,w	;volatile
  5681                           opt subtitle "HI-TECH Software Omniscient Code Generator (Lite mode) build 49521"
  5682                           
  5683                           opt pagewidth 120
  5684                           
  5685                           	opt lm
  5686                           
  5687                           	processor	18LF14K22
  5688  000980  0A00               	xorlw	0^0	; case 0
  5689  000982  B4D8               	skipnz
  5690  000984  D7F6               	goto	i2l1452
  5691  000986  0A01               	xorlw	1^0	; case 1
  5692  000988  B4D8               	skipnz
  5693  00098A  D7F6               	goto	i2l1454
  5694  00098C  D010               	goto	i2l1464
  5695                           opt subtitle "HI-TECH Software Omniscient Code Generator (Lite mode) build 49521"
  5696                           
  5697                           opt pagewidth 120
  5698  00098E                     i2l257:
  5699                           opt subtitle "HI-TECH Software Omniscient Code Generator (Lite mode) build 49521"
  5700                           
  5701  00098E  D00F               	goto	i2l1464
  5702                           opt subtitle "HI-TECH Software Omniscient Code Generator (Lite mode) build 49521"
  5703                           
  5704  000990                     i2l1460:
  5705                           opt subtitle "HI-TECH Software Omniscient Code Generator (Lite mode) build 49521"
  5706                           
  5707  000990  D00E               	goto	i2l1464
  5708                           opt subtitle "HI-TECH Software Omniscient Code Generator (Lite mode) build 49521"
  5709                           
  5710  000992                     i2l237:
  5711                           opt subtitle "HI-TECH Software Omniscient Code Generator (Lite mode) build 49521"
  5712  000992                     i2l1462:
  5713  000992  5031               	movf	((c:_currentStep)),c,w	;volatile
  5714                           opt subtitle "HI-TECH Software Omniscient Code Generator (Lite mode) build 49521"
  5715                           
  5716                           opt pagewidth 120
  5717                           
  5718                           	opt lm
  5719                           
  5720                           	processor	18LF14K22
  5721  000994  0A00               	xorlw	0^0	; case 0
  5722  000996  B4D8               	skipnz
  5723  000998  D6A5               	goto	i2l1420
  5724  00099A  0A01               	xorlw	1^0	; case 1
  5725  00099C  B4D8               	skipnz
  5726  00099E  D6F8               	goto	i2l1430
  5727  0009A0  0A03               	xorlw	2^1	; case 2
  5728  0009A2  B4D8               	skipnz
  5729  0009A4  D74A               	goto	i2l1440
  5730  0009A6  0A01               	xorlw	3^2	; case 3
  5731  0009A8  B4D8               	skipnz
  5732  0009AA  D79C               	goto	i2l1450
  5733  0009AC  D000               	goto	i2l1464
  5734                           opt subtitle "HI-TECH Software Omniscient Code Generator (Lite mode) build 49521"
  5735                           
  5736                           opt pagewidth 120
  5737  0009AE                     i2l243:
  5738                           opt subtitle "HI-TECH Software Omniscient Code Generator (Lite mode) build 49521"
  5739                           
  5740  0009AE                     i2l1464:
  5741                           opt subtitle "HI-TECH Software Omniscient Code Generator (Lite mode) build 49521"
  5742  0009AE  062F               	decf	((c:_stepsToGo)),c	;volatile
  5743  0009B0  A0D8               	btfss	status,0
  5744  0009B2  0630               	decf	((c:_stepsToGo+1)),c	;volatile
  5745                           opt subtitle "HI-TECH Software Omniscient Code Generator (Lite mode) build 49521"
  5746                           
  5747  0009B4                     i2l1466:
  5748                           opt subtitle "HI-TECH Software Omniscient Code Generator (Lite mode) build 49521"
  5749  0009B4  5030               	movf	((c:_stepsToGo+1)),c,w	;volatile
  5750  0009B6  102F               	iorwf ((c:_stepsToGo)),c,w	;volatile
  5751                           opt subtitle "HI-TECH Software Omniscient Code Generator (Lite mode) build 49521"
  5752  0009B8  A4D8               	btfss	status,2
  5753  0009BA  D001               	goto	i2u108_41
  5754  0009BC  D001               	goto	i2u108_40
  5755  0009BE                     i2u108_41:
  5756  0009BE  D003               	goto	i2l260
  5757  0009C0                     i2u108_40:
  5758                           opt subtitle "HI-TECH Software Omniscient Code Generator (Lite mode) build 49521"
  5759                           
  5760  0009C0                     i2l1468:
  5761                           opt subtitle "HI-TECH Software Omniscient Code Generator (Lite mode) build 49521"
  5762                           
  5763  0009C0  909D               	bcf	((c:3997)),c,0	;volatile
  5764  0009C2  D001               	goto	i2l260
  5765                           opt subtitle "HI-TECH Software Omniscient Code Generator (Lite mode) build 49521"
  5766                           
  5767  0009C4                     i2l259:
  5768  0009C4  D000               	goto	i2l260
  5769                           opt subtitle "HI-TECH Software Omniscient Code Generator (Lite mode) build 49521"
  5770                           
  5771  0009C6                     i2l236:
  5772                           opt subtitle "HI-TECH Software Omniscient Code Generator (Lite mode) build 49521"
  5773                           
  5774  0009C6                     i2l260:
  5775  0009C6  0012               	return
  5776                           opt subtitle "HI-TECH Software Omniscient Code Generator (Lite mode) build 49521"
  5777                           
  5778  0009C8                     	__end_of_STEPPERISR:
  5779                           opt subtitle "HI-TECH Software Omniscient Code Generator (Lite mode) build 49521"
  5780                           
  5781                           opt pagewidth 120
  5782                           
  5783                           	opt lm
  5784                           
  5785                           	processor	18LF14K22
  5786                           porta	equ	0F80h
  5787                           portb	equ	0F81h
  5788                           portc	equ	0F82h
  5789                           portd	equ	0F83h
  5790                           porte	equ	0F84h
  5791                           lata	equ	0F89h
  5792                           latb	equ	0F8Ah
  5793                           latc	equ	0F8Bh
  5794                           latd	equ	0F8Ch
  5795                           late	equ	0F8Dh
  5796                           trisa	equ	0F92h
  5797                           trisb	equ	0F93h
  5798                           trisc	equ	0F94h
  5799                           trisd	equ	0F95h
  5800                           trise	equ	0F96h
  5801                           pie1	equ	0F9Dh
  5802                           pir1	equ	0F9Eh
  5803                           ipr1	equ	0F9Fh
  5804                           pie2	equ	0FA0h
  5805                           pir2	equ	0FA1h
  5806                           ipr2	equ	0FA2h
  5807                           t3con	equ	0FB1h
  5808                           tmr3l	equ	0FB2h
  5809                           tmr3h	equ	0FB3h
  5810                           ccp1con	equ	0FBDh
  5811                           ccpr1l	equ	0FBEh
  5812                           ccpr1h	equ	0FBFh
  5813                           adcon1	equ	0FC1h
  5814                           adcon0	equ	0FC2h
  5815  00124C                     __ptext13:
  5816                           opt subtitle "HI-TECH Software Omniscient Code Generator (Lite mode) build 49521"
  5817                           
  5818                           opt pagewidth 120
  5819                           
  5820  0000                     	__size_of_readUART	equ	__end_of_readUART-_readUART
  5821                           opt subtitle "HI-TECH Software Omniscient Code Generator (Lite mode) build 49521"
  5822  00124C                     _readUART:
  5823                           opt subtitle "HI-TECH Software Omniscient Code Generator (Lite mode) build 49521"
  5824                           
  5825                           opt pagewidth 120
  5826  00124C                     i2l1768:
  5827                           opt subtitle "HI-TECH Software Omniscient Code Generator (Lite mode) build 49521"
  5828                           
  5829  00124C  0100               	movlb	0	; () banked
  5830  00124E  0E00               	movlw	high(_receiveBuffer)
  5831  001250  6E04               	movwf	((c:?_readCircularBuffer+1)),c
  5832  001252  0100               	movlb	0	; () banked
  5833  001254  0EF5               	movlw	low(_receiveBuffer)
  5834  001256  6E03               	movwf	((c:?_readCircularBuffer)),c
  5835  001258  0E00               	movlw	high((c:readUART@e))
  5836  00125A  6E06               	movwf	(1+((c:?_readCircularBuffer)+02h)),c
  5837  00125C  0E0F               	movlw	low((c:readUART@e))
  5838  00125E  6E05               	movwf	(0+((c:?_readCircularBuffer)+02h)),c
  5839  001260  EC42  F006         	call	_readCircularBuffer	;wreg free
  5840  001264  6E0E               	movwf	((c:readUART@ret)),c
  5841                           opt subtitle "HI-TECH Software Omniscient Code Generator (Lite mode) build 49521"
  5842                           
  5843  001266                     i2l1770:
  5844                           opt subtitle "HI-TECH Software Omniscient Code Generator (Lite mode) build 49521"
  5845  001266  500F               	movf	((c:readUART@e)),c,w
  5846  001268  B4D8               	btfsc	status,2
  5847  00126A  D001               	goto	i2u152_41
  5848  00126C  D001               	goto	i2u152_40
  5849  00126E                     i2u152_41:
  5850  00126E  D009               	goto	i2l1778
  5851  001270                     i2u152_40:
  5852                           opt subtitle "HI-TECH Software Omniscient Code Generator (Lite mode) build 49521"
  5853                           
  5854  001270                     i2l1772:
  5855                           opt subtitle "HI-TECH Software Omniscient Code Generator (Lite mode) build 49521"
  5856                           
  5857  001270  C00C  FFD9         	movff	(c:readUART@error),fsr2l
  5858  001274  C00D  FFDA         	movff	(c:readUART@error+1),fsr2h
  5859  001278  0E01               	movlw	low(01h)
  5860  00127A  6EDF               	movwf	indf2
  5861                           opt subtitle "HI-TECH Software Omniscient Code Generator (Lite mode) build 49521"
  5862                           
  5863  00127C                     i2l1774:
  5864                           opt subtitle "HI-TECH Software Omniscient Code Generator (Lite mode) build 49521"
  5865  00127C  0E00               	movlw	(0)&0ffh
  5866  00127E  D009               	goto	i2l184
  5867                           opt subtitle "HI-TECH Software Omniscient Code Generator (Lite mode) build 49521"
  5868  001280                     i2l1776:
  5869  001280  D008               	goto	i2l184
  5870                           opt subtitle "HI-TECH Software Omniscient Code Generator (Lite mode) build 49521"
  5871                           
  5872  001282                     i2l183:
  5873                           opt subtitle "HI-TECH Software Omniscient Code Generator (Lite mode) build 49521"
  5874                           
  5875  001282                     i2l1778:
  5876                           opt subtitle "HI-TECH Software Omniscient Code Generator (Lite mode) build 49521"
  5877                           
  5878  001282  C00C  FFD9         	movff	(c:readUART@error),fsr2l
  5879  001286  C00D  FFDA         	movff	(c:readUART@error+1),fsr2h
  5880  00128A  0E00               	movlw	low(0)
  5881  00128C  6EDF               	movwf	indf2
  5882                           opt subtitle "HI-TECH Software Omniscient Code Generator (Lite mode) build 49521"
  5883                           
  5884  00128E                     i2l1780:
  5885                           opt subtitle "HI-TECH Software Omniscient Code Generator (Lite mode) build 49521"
  5886  00128E  500E               	movf	((c:readUART@ret)),c,w
  5887  001290  D000               	goto	i2l184
  5888                           opt subtitle "HI-TECH Software Omniscient Code Generator (Lite mode) build 49521"
  5889  001292                     i2l1782:
  5890                           opt subtitle "HI-TECH Software Omniscient Code Generator (Lite mode) build 49521"
  5891                           
  5892  001292                     i2l184:
  5893  001292  0012               	return
  5894                           opt subtitle "HI-TECH Software Omniscient Code Generator (Lite mode) build 49521"
  5895                           
  5896  001294                     	__end_of_readUART:
  5897                           opt subtitle "HI-TECH Software Omniscient Code Generator (Lite mode) build 49521"
  5898                           
  5899                           opt pagewidth 120
  5900                           
  5901                           	opt lm
  5902                           
  5903                           	processor	18LF14K22
  5904                           porta	equ	0F80h
  5905                           portb	equ	0F81h
  5906                           portc	equ	0F82h
  5907                           portd	equ	0F83h
  5908                           porte	equ	0F84h
  5909                           lata	equ	0F89h
  5910                           latb	equ	0F8Ah
  5911                           latc	equ	0F8Bh
  5912                           latd	equ	0F8Ch
  5913                           late	equ	0F8Dh
  5914                           trisa	equ	0F92h
  5915                           trisb	equ	0F93h
  5916                           trisc	equ	0F94h
  5917                           trisd	equ	0F95h
  5918                           trise	equ	0F96h
  5919                           pie1	equ	0F9Dh
  5920                           pir1	equ	0F9Eh
  5921                           ipr1	equ	0F9Fh
  5922                           pie2	equ	0FA0h
  5923                           pir2	equ	0FA1h
  5924                           ipr2	equ	0FA2h
  5925                           t3con	equ	0FB1h
  5926                           tmr3l	equ	0FB2h
  5927                           tmr3h	equ	0FB3h
  5928                           ccp1con	equ	0FBDh
  5929                           ccpr1l	equ	0FBEh
  5930                           ccpr1h	equ	0FBFh
  5931                           adcon1	equ	0FC1h
  5932                           adcon0	equ	0FC2h
  5933                           adresl	equ	0FC3h
  5934                           adresh	equ	0FC4h
  5935  000F48                     __ptext14:
  5936                           opt subtitle "HI-TECH Software Omniscient Code Generator (Lite mode) build 49521"
  5937                           
  5938                           opt pagewidth 120
  5939                           
  5940  0000                     	__size_of_UARTISR	equ	__end_of_UARTISR-_UARTISR
  5941                           opt subtitle "HI-TECH Software Omniscient Code Generator (Lite mode) build 49521"
  5942  000F48                     _UARTISR:
  5943                           opt subtitle "HI-TECH Software Omniscient Code Generator (Lite mode) build 49521"
  5944                           
  5945                           opt pagewidth 120
  5946  000F48                     i2l2128:
  5947                           opt subtitle "HI-TECH Software Omniscient Code Generator (Lite mode) build 49521"
  5948                           
  5949  000F48  A89D               	btfss	((c:3997)),c,4	;volatile
  5950  000F4A  D001               	goto	i2u197_41
  5951  000F4C  D001               	goto	i2u197_40
  5952  000F4E                     i2u197_41:
  5953  000F4E  D01D               	goto	i2l187
  5954  000F50                     i2u197_40:
  5955                           opt subtitle "HI-TECH Software Omniscient Code Generator (Lite mode) build 49521"
  5956  000F50                     i2l2130:
  5957                           opt subtitle "HI-TECH Software Omniscient Code Generator (Lite mode) build 49521"
  5958  000F50  A89E               	btfss	((c:3998)),c,4	;volatile
  5959  000F52  D001               	goto	i2u198_41
  5960  000F54  D001               	goto	i2u198_40
  5961  000F56                     i2u198_41:
  5962  000F56  D019               	goto	i2l187
  5963  000F58                     i2u198_40:
  5964                           opt subtitle "HI-TECH Software Omniscient Code Generator (Lite mode) build 49521"
  5965                           
  5966  000F58                     i2l2132:
  5967                           opt subtitle "HI-TECH Software Omniscient Code Generator (Lite mode) build 49521"
  5968                           
  5969                           opt pagewidth 120
  5970  000F58  0E00               	movlw	high((c:_transmitBuffer))
  5971  000F5A  6E02               	movwf	((c:?_circularBufferEmpty+1)),c
  5972  000F5C  0E3C               	movlw	low((c:_transmitBuffer))
  5973  000F5E  6E01               	movwf	((c:?_circularBufferEmpty)),c
  5974  000F60  EC4A  F009         	call	_circularBufferEmpty	;wreg free
  5975  000F64  0900               	iorlw	0
  5976  000F66  A4D8               	btfss	status,2
  5977  000F68  D001               	goto	i2u199_41
  5978  000F6A  D001               	goto	i2u199_40
  5979  000F6C                     i2u199_41:
  5980  000F6C  D00C               	goto	i2l188
  5981  000F6E                     i2u199_40:
  5982                           opt subtitle "HI-TECH Software Omniscient Code Generator (Lite mode) build 49521"
  5983                           
  5984  000F6E                     i2l2134:
  5985                           opt subtitle "HI-TECH Software Omniscient Code Generator (Lite mode) build 49521"
  5986                           
  5987  000F6E  0E00               	movlw	high((c:_transmitBuffer))
  5988  000F70  6E04               	movwf	((c:?_readCircularBuffer+1)),c
  5989  000F72  0E3C               	movlw	low((c:_transmitBuffer))
  5990  000F74  6E03               	movwf	((c:?_readCircularBuffer)),c
  5991  000F76  0E00               	movlw	high((c:UARTISR@e))
  5992  000F78  6E06               	movwf	(1+((c:?_readCircularBuffer)+02h)),c
  5993  000F7A  0E0E               	movlw	low((c:UARTISR@e))
  5994  000F7C  6E05               	movwf	(0+((c:?_readCircularBuffer)+02h)),c
  5995  000F7E  EC42  F006         	call	_readCircularBuffer	;wreg free
  5996  000F82  6EAD               	movwf	((c:4013)),c	;volatile
  5997                           opt subtitle "HI-TECH Software Omniscient Code Generator (Lite mode) build 49521"
  5998                           
  5999  000F84  D002               	goto	i2l187
  6000                           opt subtitle "HI-TECH Software Omniscient Code Generator (Lite mode) build 49521"
  6001                           
  6002  000F86                     i2l188:
  6003                           opt subtitle "HI-TECH Software Omniscient Code Generator (Lite mode) build 49521"
  6004                           
  6005                           opt pagewidth 120
  6006                           
  6007  000F86  989D               	bcf	((c:3997)),c,4	;volatile
  6008  000F88  D000               	goto	i2l187
  6009                           opt subtitle "HI-TECH Software Omniscient Code Generator (Lite mode) build 49521"
  6010                           
  6011  000F8A                     i2l189:
  6012                           opt subtitle "HI-TECH Software Omniscient Code Generator (Lite mode) build 49521"
  6013                           
  6014  000F8A                     i2l187:
  6015                           opt subtitle "HI-TECH Software Omniscient Code Generator (Lite mode) build 49521"
  6016                           
  6017                           opt pagewidth 120
  6018                           
  6019                           	opt lm
  6020  000F8A  AA9D               	btfss	((c:3997)),c,5	;volatile
  6021  000F8C  D001               	goto	i2u200_41
  6022  000F8E  D001               	goto	i2u200_40
  6023  000F90                     i2u200_41:
  6024  000F90  D021               	goto	i2l192
  6025  000F92                     i2u200_40:
  6026                           opt subtitle "HI-TECH Software Omniscient Code Generator (Lite mode) build 49521"
  6027  000F92                     i2l2136:
  6028                           opt subtitle "HI-TECH Software Omniscient Code Generator (Lite mode) build 49521"
  6029  000F92  AA9E               	btfss	((c:3998)),c,5	;volatile
  6030  000F94  D001               	goto	i2u201_41
  6031  000F96  D001               	goto	i2u201_40
  6032  000F98                     i2u201_41:
  6033  000F98  D01D               	goto	i2l192
  6034  000F9A                     i2u201_40:
  6035                           opt subtitle "HI-TECH Software Omniscient Code Generator (Lite mode) build 49521"
  6036                           
  6037  000F9A                     i2l2138:
  6038                           opt subtitle "HI-TECH Software Omniscient Code Generator (Lite mode) build 49521"
  6039                           
  6040                           opt pagewidth 120
  6041  000F9A  0100               	movlb	0	; () banked
  6042  000F9C  0E00               	movlw	high(_receiveBuffer)
  6043  000F9E  6E02               	movwf	((c:?i2_circularBufferFull+1)),c
  6044  000FA0  0100               	movlb	0	; () banked
  6045  000FA2  0EF5               	movlw	low(_receiveBuffer)
  6046  000FA4  6E01               	movwf	((c:?i2_circularBufferFull)),c
  6047  000FA6  EC61  F008         	call	i2_circularBufferFull	;wreg free
  6048  000FAA  0900               	iorlw	0
  6049  000FAC  A4D8               	btfss	status,2
  6050  000FAE  D001               	goto	i2u202_41
  6051  000FB0  D001               	goto	i2u202_40
  6052  000FB2                     i2u202_41:
  6053  000FB2  D010               	goto	i2l192
  6054  000FB4                     i2u202_40:
  6055                           opt subtitle "HI-TECH Software Omniscient Code Generator (Lite mode) build 49521"
  6056                           
  6057  000FB4                     i2l2140:
  6058                           opt subtitle "HI-TECH Software Omniscient Code Generator (Lite mode) build 49521"
  6059                           
  6060  000FB4  0100               	movlb	0	; () banked
  6061  000FB6  0E00               	movlw	high(_receiveBuffer)
  6062  000FB8  6E06               	movwf	((c:?i2_writeCircularBuffer+1)),c
  6063  000FBA  0100               	movlb	0	; () banked
  6064  000FBC  0EF5               	movlw	low(_receiveBuffer)
  6065  000FBE  6E05               	movwf	((c:?i2_writeCircularBuffer)),c
  6066  000FC0  CFAE F007          	movff	(c:4014),0+((c:?i2_writeCircularBuffer)+02h)	;volatile
  6067  000FC4  0E00               	movlw	high((c:UARTISR@e_809))
  6068  000FC6  6E09               	movwf	(1+((c:?i2_writeCircularBuffer)+03h)),c
  6069  000FC8  0E0F               	movlw	low((c:UARTISR@e_809))
  6070  000FCA  6E08               	movwf	(0+((c:?i2_writeCircularBuffer)+03h)),c
  6071  000FCC  ECA4  F006         	call	i2_writeCircularBuffer	;wreg free
  6072  000FD0  D001               	goto	i2l192
  6073                           opt subtitle "HI-TECH Software Omniscient Code Generator (Lite mode) build 49521"
  6074                           
  6075  000FD2                     i2l191:
  6076  000FD2  D000               	goto	i2l192
  6077                           opt subtitle "HI-TECH Software Omniscient Code Generator (Lite mode) build 49521"
  6078                           
  6079  000FD4                     i2l190:
  6080                           opt subtitle "HI-TECH Software Omniscient Code Generator (Lite mode) build 49521"
  6081                           
  6082  000FD4                     i2l192:
  6083  000FD4  0012               	return
  6084                           opt subtitle "HI-TECH Software Omniscient Code Generator (Lite mode) build 49521"
  6085                           
  6086  000FD6                     	__end_of_UARTISR:
  6087                           opt subtitle "HI-TECH Software Omniscient Code Generator (Lite mode) build 49521"
  6088                           
  6089                           opt pagewidth 120
  6090                           
  6091                           	opt lm
  6092                           
  6093                           	processor	18LF14K22
  6094                           porta	equ	0F80h
  6095                           portb	equ	0F81h
  6096                           portc	equ	0F82h
  6097                           portd	equ	0F83h
  6098                           porte	equ	0F84h
  6099                           lata	equ	0F89h
  6100                           latb	equ	0F8Ah
  6101                           latc	equ	0F8Bh
  6102                           latd	equ	0F8Ch
  6103                           late	equ	0F8Dh
  6104                           trisa	equ	0F92h
  6105                           trisb	equ	0F93h
  6106                           trisc	equ	0F94h
  6107                           trisd	equ	0F95h
  6108                           trise	equ	0F96h
  6109                           pie1	equ	0F9Dh
  6110                           pir1	equ	0F9Eh
  6111                           ipr1	equ	0F9Fh
  6112                           pie2	equ	0FA0h
  6113                           pir2	equ	0FA1h
  6114                           ipr2	equ	0FA2h
  6115                           t3con	equ	0FB1h
  6116                           tmr3l	equ	0FB2h
  6117                           tmr3h	equ	0FB3h
  6118                           ccp1con	equ	0FBDh
  6119                           ccpr1l	equ	0FBEh
  6120  000FD6                     __ptext15:
  6121                           opt subtitle "HI-TECH Software Omniscient Code Generator (Lite mode) build 49521"
  6122                           
  6123                           opt pagewidth 120
  6124                           
  6125  0000                     	__size_of_asciiDigitToInt	equ	__end_of_asciiDigitToInt-_asciiDigitToInt
  6126                           opt subtitle "HI-TECH Software Omniscient Code Generator (Lite mode) build 49521"
  6127  000FD6                     _asciiDigitToInt:
  6128                           opt subtitle "HI-TECH Software Omniscient Code Generator (Lite mode) build 49521"
  6129                           
  6130                           opt pagewidth 120
  6131  000FD6                     i2l1386:
  6132                           opt subtitle "HI-TECH Software Omniscient Code Generator (Lite mode) build 49521"
  6133  000FD6  0E2F               	movlw	(030h-1)
  6134  000FD8  6401               	cpfsgt	((c:asciiDigitToInt@c)),c
  6135  000FDA  D001               	goto	i2u84_41
  6136  000FDC  D001               	goto	i2u84_40
  6137  000FDE                     i2u84_41:
  6138  000FDE  D00D               	goto	i2l1394
  6139  000FE0                     i2u84_40:
  6140                           opt subtitle "HI-TECH Software Omniscient Code Generator (Lite mode) build 49521"
  6141  000FE0                     i2l1388:
  6142  000FE0  0E3A               	movlw	(03Ah)&0ffh
  6143  000FE2  6001               	cpfslt	((c:asciiDigitToInt@c)),c
  6144  000FE4  D001               	goto	i2u85_41
  6145  000FE6  D001               	goto	i2u85_40
  6146  000FE8                     i2u85_41:
  6147  000FE8  D008               	goto	i2l1394
  6148  000FEA                     i2u85_40:
  6149                           opt subtitle "HI-TECH Software Omniscient Code Generator (Lite mode) build 49521"
  6150                           
  6151  000FEA                     i2l1390:
  6152                           opt subtitle "HI-TECH Software Omniscient Code Generator (Lite mode) build 49521"
  6153                           
  6154  000FEA  0ED0               	movlw	low(0FFD0h)
  6155  000FEC  2401               	addwf	((c:asciiDigitToInt@c)),c,w
  6156                           opt subtitle "HI-TECH Software Omniscient Code Generator (Lite mode) build 49521"
  6157  000FEE  6E01               	movwf	((c:?_asciiDigitToInt)),c
  6158  000FF0  6A02               	clrf	1+((c:?_asciiDigitToInt)),c
  6159  000FF2  0EFF               	movlw	high(0FFD0h)
  6160  000FF4  2202               	addwfc	1+((c:?_asciiDigitToInt)),c
  6161  000FF6  D02A               	goto	i2l62
  6162                           opt subtitle "HI-TECH Software Omniscient Code Generator (Lite mode) build 49521"
  6163  000FF8                     i2l1392:
  6164  000FF8  D029               	goto	i2l62
  6165                           opt subtitle "HI-TECH Software Omniscient Code Generator (Lite mode) build 49521"
  6166                           
  6167  000FFA                     i2l61:
  6168                           opt subtitle "HI-TECH Software Omniscient Code Generator (Lite mode) build 49521"
  6169                           
  6170  000FFA                     i2l1394:
  6171                           opt subtitle "HI-TECH Software Omniscient Code Generator (Lite mode) build 49521"
  6172                           
  6173  000FFA  0E40               	movlw	(041h-1)
  6174  000FFC  6401               	cpfsgt	((c:asciiDigitToInt@c)),c
  6175  000FFE  D001               	goto	i2u86_41
  6176  001000  D001               	goto	i2u86_40
  6177  001002                     i2u86_41:
  6178  001002  D00D               	goto	i2l1402
  6179  001004                     i2u86_40:
  6180                           opt subtitle "HI-TECH Software Omniscient Code Generator (Lite mode) build 49521"
  6181  001004                     i2l1396:
  6182  001004  0E47               	movlw	(047h)&0ffh
  6183  001006  6001               	cpfslt	((c:asciiDigitToInt@c)),c
  6184  001008  D001               	goto	i2u87_41
  6185  00100A  D001               	goto	i2u87_40
  6186  00100C                     i2u87_41:
  6187  00100C  D008               	goto	i2l1402
  6188  00100E                     i2u87_40:
  6189                           opt subtitle "HI-TECH Software Omniscient Code Generator (Lite mode) build 49521"
  6190                           
  6191  00100E                     i2l1398:
  6192                           opt subtitle "HI-TECH Software Omniscient Code Generator (Lite mode) build 49521"
  6193                           
  6194  00100E  0EC9               	movlw	low(0FFC9h)
  6195  001010  2401               	addwf	((c:asciiDigitToInt@c)),c,w
  6196                           opt subtitle "HI-TECH Software Omniscient Code Generator (Lite mode) build 49521"
  6197  001012  6E01               	movwf	((c:?_asciiDigitToInt)),c
  6198  001014  6A02               	clrf	1+((c:?_asciiDigitToInt)),c
  6199  001016  0EFF               	movlw	high(0FFC9h)
  6200  001018  2202               	addwfc	1+((c:?_asciiDigitToInt)),c
  6201  00101A  D018               	goto	i2l62
  6202                           opt subtitle "HI-TECH Software Omniscient Code Generator (Lite mode) build 49521"
  6203  00101C                     i2l1400:
  6204  00101C  D017               	goto	i2l62
  6205                           opt subtitle "HI-TECH Software Omniscient Code Generator (Lite mode) build 49521"
  6206                           
  6207  00101E                     i2l63:
  6208                           opt subtitle "HI-TECH Software Omniscient Code Generator (Lite mode) build 49521"
  6209                           
  6210  00101E                     i2l1402:
  6211                           opt subtitle "HI-TECH Software Omniscient Code Generator (Lite mode) build 49521"
  6212                           
  6213  00101E  0E60               	movlw	(061h-1)
  6214  001020  6401               	cpfsgt	((c:asciiDigitToInt@c)),c
  6215  001022  D001               	goto	i2u88_41
  6216  001024  D001               	goto	i2u88_40
  6217  001026                     i2u88_41:
  6218  001026  D00D               	goto	i2l1410
  6219  001028                     i2u88_40:
  6220                           opt subtitle "HI-TECH Software Omniscient Code Generator (Lite mode) build 49521"
  6221  001028                     i2l1404:
  6222  001028  0E67               	movlw	(067h)&0ffh
  6223  00102A  6001               	cpfslt	((c:asciiDigitToInt@c)),c
  6224  00102C  D001               	goto	i2u89_41
  6225  00102E  D001               	goto	i2u89_40
  6226  001030                     i2u89_41:
  6227  001030  D008               	goto	i2l1410
  6228  001032                     i2u89_40:
  6229                           opt subtitle "HI-TECH Software Omniscient Code Generator (Lite mode) build 49521"
  6230                           
  6231  001032                     i2l1406:
  6232                           opt subtitle "HI-TECH Software Omniscient Code Generator (Lite mode) build 49521"
  6233                           
  6234  001032  0EF0               	movlw	low(0FFF0h)
  6235  001034  2401               	addwf	((c:asciiDigitToInt@c)),c,w
  6236                           opt subtitle "HI-TECH Software Omniscient Code Generator (Lite mode) build 49521"
  6237  001036  6E01               	movwf	((c:?_asciiDigitToInt)),c
  6238  001038  6A02               	clrf	1+((c:?_asciiDigitToInt)),c
  6239  00103A  0EFF               	movlw	high(0FFF0h)
  6240  00103C  2202               	addwfc	1+((c:?_asciiDigitToInt)),c
  6241  00103E  D006               	goto	i2l62
  6242                           opt subtitle "HI-TECH Software Omniscient Code Generator (Lite mode) build 49521"
  6243  001040                     i2l1408:
  6244  001040  D005               	goto	i2l62
  6245                           opt subtitle "HI-TECH Software Omniscient Code Generator (Lite mode) build 49521"
  6246                           
  6247  001042                     i2l64:
  6248                           opt subtitle "HI-TECH Software Omniscient Code Generator (Lite mode) build 49521"
  6249                           
  6250  001042                     i2l1410:
  6251                           opt subtitle "HI-TECH Software Omniscient Code Generator (Lite mode) build 49521"
  6252                           
  6253  001042  0E00               	movlw	high(0FFh)
  6254  001044  6E02               	movwf	((c:?_asciiDigitToInt+1)),c
  6255  001046  0EFF               	movlw	low(0FFh)
  6256  001048  6E01               	movwf	((c:?_asciiDigitToInt)),c
  6257  00104A  D000               	goto	i2l62
  6258                           opt subtitle "HI-TECH Software Omniscient Code Generator (Lite mode) build 49521"
  6259  00104C                     i2l1412:
  6260                           opt subtitle "HI-TECH Software Omniscient Code Generator (Lite mode) build 49521"
  6261                           
  6262  00104C                     i2l62:
  6263  00104C  0012               	return
  6264                           opt subtitle "HI-TECH Software Omniscient Code Generator (Lite mode) build 49521"
  6265                           
  6266  00104E                     	__end_of_asciiDigitToInt:
  6267                           opt subtitle "HI-TECH Software Omniscient Code Generator (Lite mode) build 49521"
  6268                           
  6269                           opt pagewidth 120
  6270                           
  6271                           	opt lm
  6272                           
  6273                           	processor	18LF14K22
  6274                           porta	equ	0F80h
  6275                           portb	equ	0F81h
  6276                           portc	equ	0F82h
  6277                           portd	equ	0F83h
  6278                           porte	equ	0F84h
  6279                           lata	equ	0F89h
  6280                           latb	equ	0F8Ah
  6281                           latc	equ	0F8Bh
  6282                           latd	equ	0F8Ch
  6283                           late	equ	0F8Dh
  6284                           trisa	equ	0F92h
  6285                           trisb	equ	0F93h
  6286                           trisc	equ	0F94h
  6287                           trisd	equ	0F95h
  6288                           trise	equ	0F96h
  6289                           pie1	equ	0F9Dh
  6290                           pir1	equ	0F9Eh
  6291                           ipr1	equ	0F9Fh
  6292                           pie2	equ	0FA0h
  6293                           pir2	equ	0FA1h
  6294                           ipr2	equ	0FA2h
  6295                           t3con	equ	0FB1h
  6296                           tmr3l	equ	0FB2h
  6297                           tmr3h	equ	0FB3h
  6298                           ccp1con	equ	0FBDh
  6299                           ccpr1l	equ	0FBEh
  6300                           ccpr1h	equ	0FBFh
  6301                           adcon1	equ	0FC1h
  6302                           adcon0	equ	0FC2h
  6303                           adresl	equ	0FC3h
  6304                           adresh	equ	0FC4h
  6305  000C84                     __ptext16:
  6306                           opt subtitle "HI-TECH Software Omniscient Code Generator (Lite mode) build 49521"
  6307                           
  6308                           opt pagewidth 120
  6309                           
  6310  0000                     	__size_of_readCircularBuffer	equ	__end_of_readCircularBuffer-_readCircularBuffer
  6311                           opt subtitle "HI-TECH Software Omniscient Code Generator (Lite mode) build 49521"
  6312  000C84                     _readCircularBuffer:
  6313                           opt subtitle "HI-TECH Software Omniscient Code Generator (Lite mode) build 49521"
  6314                           
  6315                           opt pagewidth 120
  6316  000C84                     i2l1720:
  6317                           opt subtitle "HI-TECH Software Omniscient Code Generator (Lite mode) build 49521"
  6318  000C84  C003  F001         	movff	(c:readCircularBuffer@buf),(c:?_circularBufferEmpty)
  6319  000C88  C004  F002         	movff	(c:readCircularBuffer@buf+1),(c:?_circularBufferEmpty+1)
  6320  000C8C  EC4A  F009         	call	_circularBufferEmpty	;wreg free
  6321  000C90  0900               	iorlw	0
  6322  000C92  B4D8               	btfsc	status,2
  6323  000C94  D001               	goto	i2u142_41
  6324  000C96  D001               	goto	i2u142_40
  6325  000C98                     i2u142_41:
  6326  000C98  D009               	goto	i2l1728
  6327  000C9A                     i2u142_40:
  6328                           opt subtitle "HI-TECH Software Omniscient Code Generator (Lite mode) build 49521"
  6329                           
  6330  000C9A                     i2l1722:
  6331                           opt subtitle "HI-TECH Software Omniscient Code Generator (Lite mode) build 49521"
  6332                           
  6333  000C9A  C005  FFD9         	movff	(c:readCircularBuffer@error),fsr2l
  6334  000C9E  C006  FFDA         	movff	(c:readCircularBuffer@error+1),fsr2h
  6335  000CA2  0E02               	movlw	low(02h)
  6336  000CA4  6EDF               	movwf	indf2
  6337                           opt subtitle "HI-TECH Software Omniscient Code Generator (Lite mode) build 49521"
  6338                           
  6339  000CA6                     i2l1724:
  6340                           opt subtitle "HI-TECH Software Omniscient Code Generator (Lite mode) build 49521"
  6341  000CA6  0E00               	movlw	(0)&0ffh
  6342  000CA8  D04E               	goto	i2l268
  6343                           opt subtitle "HI-TECH Software Omniscient Code Generator (Lite mode) build 49521"
  6344  000CAA                     i2l1726:
  6345  000CAA  D04D               	goto	i2l268
  6346                           opt subtitle "HI-TECH Software Omniscient Code Generator (Lite mode) build 49521"
  6347                           
  6348  000CAC                     i2l267:
  6349                           opt subtitle "HI-TECH Software Omniscient Code Generator (Lite mode) build 49521"
  6350                           
  6351  000CAC                     i2l1728:
  6352                           opt subtitle "HI-TECH Software Omniscient Code Generator (Lite mode) build 49521"
  6353                           
  6354  000CAC  EE20 F006          	lfsr	2,06h
  6355  000CB0  5003               	movf	((c:readCircularBuffer@buf)),c,w
  6356  000CB2  26D9               	addwf	fsr2l
  6357  000CB4  5004               	movf	((c:readCircularBuffer@buf+1)),c,w
  6358  000CB6  22DA               	addwfc	fsr2h
  6359  000CB8  CFDE F007          	movff	postinc2,??_readCircularBuffer+0+0
  6360  000CBC  CFDD F008          	movff	postdec2,??_readCircularBuffer+0+0+1
  6361  000CC0  C003  FFD9         	movff	(c:readCircularBuffer@buf),fsr2l
  6362  000CC4  C004  FFDA         	movff	(c:readCircularBuffer@buf+1),fsr2h
  6363  000CC8  CFDE F009          	movff	postinc2,??_readCircularBuffer+2+0
  6364  000CCC  CFDD F00A          	movff	postdec2,??_readCircularBuffer+2+0+1
  6365  000CD0  5007               	movf	(??_readCircularBuffer+0+0),c,w
  6366  000CD2  2409               	addwf	(??_readCircularBuffer+2+0),c,w
  6367  000CD4  6ED9               	movwf	c:fsr2l
  6368  000CD6  5008               	movf	(??_readCircularBuffer+0+1),c,w
  6369  000CD8  200A               	addwfc	(??_readCircularBuffer+2+1),c,w
  6370  000CDA  6EDA               	movwf	1+c:fsr2l
  6371  000CDC  50DF               	movf	indf2,w
  6372  000CDE  6E0B               	movwf	((c:readCircularBuffer@temp)),c
  6373                           opt subtitle "HI-TECH Software Omniscient Code Generator (Lite mode) build 49521"
  6374                           
  6375  000CE0  EE20 F006          	lfsr	2,06h
  6376  000CE4  5003               	movf	((c:readCircularBuffer@buf)),c,w
  6377  000CE6  26D9               	addwf	fsr2l
  6378  000CE8  5004               	movf	((c:readCircularBuffer@buf+1)),c,w
  6379  000CEA  22DA               	addwfc	fsr2h
  6380  000CEC  2ADE               	incf	postinc2
  6381  000CEE  0E00               	movlw	0
  6382  000CF0  22DD               	addwfc	postdec2
  6383                           opt subtitle "HI-TECH Software Omniscient Code Generator (Lite mode) build 49521"
  6384                           
  6385  000CF2                     i2l1730:
  6386                           opt subtitle "HI-TECH Software Omniscient Code Generator (Lite mode) build 49521"
  6387  000CF2  EE20 F002          	lfsr	2,02h
  6388  000CF6  5003               	movf	((c:readCircularBuffer@buf)),c,w
  6389  000CF8  26D9               	addwf	fsr2l
  6390  000CFA  5004               	movf	((c:readCircularBuffer@buf+1)),c,w
  6391  000CFC  22DA               	addwfc	fsr2h
  6392  000CFE  EE10 F006          	lfsr	1,06h
  6393  000D02  5003               	movf	((c:readCircularBuffer@buf)),c,w
  6394  000D04  26E1               	addwf	fsr1l
  6395  000D06  5004               	movf	((c:readCircularBuffer@buf+1)),c,w
  6396  000D08  22E2               	addwfc	fsr1h
  6397  000D0A  52E6               	movf	postinc1
  6398  000D0C  52DE               	movf	postinc2
  6399  000D0E  50DD               	movf	postdec2,w
  6400  000D10  5CE5               	subwf	postdec1,w
  6401  000D12  E102               	bnz	i2u143_45
  6402  000D14  50DF               	movf	indf2,w
  6403  000D16  5CE7               	subwf	indf1,w
  6404  000D18                     i2u143_45:
  6405                           opt subtitle "HI-TECH Software Omniscient Code Generator (Lite mode) build 49521"
  6406  000D18  A0D8               	btfss	status,0
  6407  000D1A  D001               	goto	i2u143_41
  6408  000D1C  D001               	goto	i2u143_40
  6409  000D1E                     i2u143_41:
  6410  000D1E  D00B               	goto	i2l1734
  6411  000D20                     i2u143_40:
  6412                           opt subtitle "HI-TECH Software Omniscient Code Generator (Lite mode) build 49521"
  6413                           
  6414  000D20                     i2l1732:
  6415                           opt subtitle "HI-TECH Software Omniscient Code Generator (Lite mode) build 49521"
  6416                           
  6417  000D20  EE20 F006          	lfsr	2,06h
  6418  000D24  5003               	movf	((c:readCircularBuffer@buf)),c,w
  6419  000D26  26D9               	addwf	fsr2l
  6420  000D28  5004               	movf	((c:readCircularBuffer@buf+1)),c,w
  6421  000D2A  22DA               	addwfc	fsr2h
  6422  000D2C  0E00               	movlw	low(0)
  6423  000D2E  6EDE               	movwf	postinc2
  6424  000D30  0E00               	movlw	high(0)
  6425  000D32  6EDD               	movwf	postdec2
  6426  000D34  D000               	goto	i2l1734
  6427                           opt subtitle "HI-TECH Software Omniscient Code Generator (Lite mode) build 49521"
  6428                           
  6429  000D36                     i2l269:
  6430                           opt subtitle "HI-TECH Software Omniscient Code Generator (Lite mode) build 49521"
  6431                           
  6432  000D36                     i2l1734:
  6433                           opt subtitle "HI-TECH Software Omniscient Code Generator (Lite mode) build 49521"
  6434                           
  6435  000D36  C005  FFD9         	movff	(c:readCircularBuffer@error),fsr2l
  6436  000D3A  C006  FFDA         	movff	(c:readCircularBuffer@error+1),fsr2h
  6437  000D3E  0E00               	movlw	low(0)
  6438  000D40  6EDF               	movwf	indf2
  6439                           opt subtitle "HI-TECH Software Omniscient Code Generator (Lite mode) build 49521"
  6440                           
  6441  000D42                     i2l1736:
  6442                           opt subtitle "HI-TECH Software Omniscient Code Generator (Lite mode) build 49521"
  6443  000D42  500B               	movf	((c:readCircularBuffer@temp)),c,w
  6444  000D44  D000               	goto	i2l268
  6445                           opt subtitle "HI-TECH Software Omniscient Code Generator (Lite mode) build 49521"
  6446  000D46                     i2l1738:
  6447                           opt subtitle "HI-TECH Software Omniscient Code Generator (Lite mode) build 49521"
  6448                           
  6449  000D46                     i2l268:
  6450  000D46  0012               	return
  6451                           opt subtitle "HI-TECH Software Omniscient Code Generator (Lite mode) build 49521"
  6452                           
  6453  000D48                     	__end_of_readCircularBuffer:
  6454                           opt subtitle "HI-TECH Software Omniscient Code Generator (Lite mode) build 49521"
  6455                           
  6456                           opt pagewidth 120
  6457                           
  6458                           	opt lm
  6459                           
  6460                           	processor	18LF14K22
  6461                           porta	equ	0F80h
  6462                           portb	equ	0F81h
  6463                           portc	equ	0F82h
  6464                           portd	equ	0F83h
  6465                           porte	equ	0F84h
  6466                           lata	equ	0F89h
  6467                           latb	equ	0F8Ah
  6468                           latc	equ	0F8Bh
  6469                           latd	equ	0F8Ch
  6470                           late	equ	0F8Dh
  6471                           trisa	equ	0F92h
  6472                           trisb	equ	0F93h
  6473                           trisc	equ	0F94h
  6474                           trisd	equ	0F95h
  6475                           trise	equ	0F96h
  6476                           pie1	equ	0F9Dh
  6477                           pir1	equ	0F9Eh
  6478                           ipr1	equ	0F9Fh
  6479                           pie2	equ	0FA0h
  6480                           pir2	equ	0FA1h
  6481                           ipr2	equ	0FA2h
  6482                           t3con	equ	0FB1h
  6483                           tmr3l	equ	0FB2h
  6484                           tmr3h	equ	0FB3h
  6485                           ccp1con	equ	0FBDh
  6486                           ccpr1l	equ	0FBEh
  6487                           ccpr1h	equ	0FBFh
  6488                           adcon1	equ	0FC1h
  6489  001294                     __ptext17:
  6490                           opt subtitle "HI-TECH Software Omniscient Code Generator (Lite mode) build 49521"
  6491                           
  6492                           opt pagewidth 120
  6493                           
  6494  0000                     	__size_of_circularBufferEmpty	equ	__end_of_circularBufferEmpty-_circularBufferEmpty
  6495                           opt subtitle "HI-TECH Software Omniscient Code Generator (Lite mode) build 49521"
  6496  001294                     _circularBufferEmpty:
  6497                           opt subtitle "HI-TECH Software Omniscient Code Generator (Lite mode) build 49521"
  6498                           
  6499                           opt pagewidth 120
  6500  001294                     i2l1696:
  6501                           opt subtitle "HI-TECH Software Omniscient Code Generator (Lite mode) build 49521"
  6502  001294  EE20 F006          	lfsr	2,06h
  6503  001298  5001               	movf	((c:circularBufferEmpty@buf)),c,w
  6504  00129A  26D9               	addwf	fsr2l
  6505  00129C  5002               	movf	((c:circularBufferEmpty@buf+1)),c,w
  6506  00129E  22DA               	addwfc	fsr2h
  6507  0012A0  EE10 F004          	lfsr	1,04h
  6508  0012A4  5001               	movf	((c:circularBufferEmpty@buf)),c,w
  6509  0012A6  26E1               	addwf	fsr1l
  6510  0012A8  5002               	movf	((c:circularBufferEmpty@buf+1)),c,w
  6511  0012AA  22E2               	addwfc	fsr1h
  6512  0012AC  52E6               	movf	postinc1
  6513  0012AE  52DE               	movf	postinc2
  6514  0012B0  50DD               	movf	postdec2,w
  6515  0012B2  18E5               	xorwf	postdec1,w
  6516  0012B4  CFDF FFE8          	movff	indf2,wreg
  6517  0012B8  B4D8               	btfsc	status,2
  6518  0012BA  18E7               	xorwf	indf1,w
  6519                           opt subtitle "HI-TECH Software Omniscient Code Generator (Lite mode) build 49521"
  6520                           
  6521  0012BC  B4D8               	btfsc	status,2
  6522  0012BE  D001               	goto	i2u137_41
  6523  0012C0  D002               	goto	i2u137_40
  6524  0012C2                     i2u137_41:
  6525  0012C2  0E01               	movlw	1
  6526  0012C4  D001               	goto	i2u137_46
  6527  0012C6                     i2u137_40:
  6528  0012C6  0E00               	movlw	0
  6529  0012C8                     i2u137_46:
  6530  0012C8  D000               	goto	i2l281
  6531                           opt subtitle "HI-TECH Software Omniscient Code Generator (Lite mode) build 49521"
  6532  0012CA                     i2l1698:
  6533                           opt subtitle "HI-TECH Software Omniscient Code Generator (Lite mode) build 49521"
  6534                           
  6535  0012CA                     i2l281:
  6536  0012CA  0012               	return
  6537                           opt subtitle "HI-TECH Software Omniscient Code Generator (Lite mode) build 49521"
  6538                           
  6539  0012CC                     	__end_of_circularBufferEmpty:
  6540                           opt subtitle "HI-TECH Software Omniscient Code Generator (Lite mode) build 49521"
  6541                           
  6542                           opt pagewidth 120
  6543                           
  6544                           	opt lm
  6545                           
  6546                           	processor	18LF14K22
  6547                           porta	equ	0F80h
  6548                           portb	equ	0F81h
  6549                           portc	equ	0F82h
  6550                           portd	equ	0F83h
  6551                           porte	equ	0F84h
  6552                           lata	equ	0F89h
  6553                           latb	equ	0F8Ah
  6554                           latc	equ	0F8Bh
  6555                           latd	equ	0F8Ch
  6556                           late	equ	0F8Dh
  6557                           trisa	equ	0F92h
  6558                           trisb	equ	0F93h
  6559                           trisc	equ	0F94h
  6560                           trisd	equ	0F95h
  6561                           trise	equ	0F96h
  6562                           pie1	equ	0F9Dh
  6563                           pir1	equ	0F9Eh
  6564                           ipr1	equ	0F9Fh
  6565                           pie2	equ	0FA0h
  6566                           pir2	equ	0FA1h
  6567                           ipr2	equ	0FA2h
  6568                           t3con	equ	0FB1h
  6569                           tmr3l	equ	0FB2h
  6570                           tmr3h	equ	0FB3h
  6571                           ccp1con	equ	0FBDh
  6572                           ccpr1l	equ	0FBEh
  6573                           ccpr1h	equ	0FBFh
  6574                           adcon1	equ	0FC1h
  6575                           adcon0	equ	0FC2h
  6576                           adresl	equ	0FC3h
  6577                           adresh	equ	0FC4h
  6578  000D48                     __ptext18:
  6579                           opt subtitle "HI-TECH Software Omniscient Code Generator (Lite mode) build 49521"
  6580                           
  6581                           opt pagewidth 120
  6582                           
  6583  0000                     	__size_ofi2_writeCircularBuffer	equ	__end_ofi2_writeCircularBuffer-i2_writeCircularBuff
                                 er
  6584                           opt subtitle "HI-TECH Software Omniscient Code Generator (Lite mode) build 49521"
  6585  000D48                     i2_writeCircularBuffer:
  6586                           opt subtitle "HI-TECH Software Omniscient Code Generator (Lite mode) build 49521"
  6587                           
  6588                           opt pagewidth 120
  6589  000D48                     i2l2114:
  6590                           opt subtitle "HI-TECH Software Omniscient Code Generator (Lite mode) build 49521"
  6591  000D48  C005  F001         	movff	(c:i2writeCircularBuffer@buf),(c:?i2_circularBufferFull)
  6592  000D4C  C006  F002         	movff	(c:i2writeCircularBuffer@buf+1),(c:?i2_circularBufferFull+1)
  6593  000D50  EC61  F008         	call	i2_circularBufferFull	;wreg free
  6594  000D54  0900               	iorlw	0
  6595  000D56  B4D8               	btfsc	status,2
  6596  000D58  D001               	goto	i2u195_41
  6597  000D5A  D001               	goto	i2u195_40
  6598  000D5C                     i2u195_41:
  6599  000D5C  D008               	goto	i2l2120
  6600  000D5E                     i2u195_40:
  6601                           opt subtitle "HI-TECH Software Omniscient Code Generator (Lite mode) build 49521"
  6602                           
  6603  000D5E                     i2l2116:
  6604                           opt subtitle "HI-TECH Software Omniscient Code Generator (Lite mode) build 49521"
  6605                           
  6606  000D5E  C008  FFD9         	movff	(c:i2writeCircularBuffer@error),fsr2l
  6607  000D62  C009  FFDA         	movff	(c:i2writeCircularBuffer@error+1),fsr2h
  6608  000D66  0E01               	movlw	low(01h)
  6609  000D68  6EDF               	movwf	indf2
  6610  000D6A  D04C               	goto	i2l273
  6611                           opt subtitle "HI-TECH Software Omniscient Code Generator (Lite mode) build 49521"
  6612                           
  6613  000D6C                     i2l2118:
  6614                           opt subtitle "HI-TECH Software Omniscient Code Generator (Lite mode) build 49521"
  6615  000D6C  D04B               	goto	i2l273
  6616                           opt subtitle "HI-TECH Software Omniscient Code Generator (Lite mode) build 49521"
  6617                           
  6618  000D6E                     i2l272:
  6619                           opt subtitle "HI-TECH Software Omniscient Code Generator (Lite mode) build 49521"
  6620                           
  6621  000D6E                     i2l2120:
  6622                           opt subtitle "HI-TECH Software Omniscient Code Generator (Lite mode) build 49521"
  6623                           
  6624  000D6E  EE20 F004          	lfsr	2,04h
  6625  000D72  5005               	movf	((c:i2writeCircularBuffer@buf)),c,w
  6626  000D74  26D9               	addwf	fsr2l
  6627  000D76  5006               	movf	((c:i2writeCircularBuffer@buf+1)),c,w
  6628  000D78  22DA               	addwfc	fsr2h
  6629  000D7A  CFDE F00A          	movff	postinc2,??i2_writeCircularBuffer+0+0
  6630  000D7E  CFDD F00B          	movff	postdec2,??i2_writeCircularBuffer+0+0+1
  6631  000D82  C005  FFD9         	movff	(c:i2writeCircularBuffer@buf),fsr2l
  6632  000D86  C006  FFDA         	movff	(c:i2writeCircularBuffer@buf+1),fsr2h
  6633  000D8A  CFDE F00C          	movff	postinc2,??i2_writeCircularBuffer+2+0
  6634  000D8E  CFDD F00D          	movff	postdec2,??i2_writeCircularBuffer+2+0+1
  6635  000D92  500A               	movf	(??i2_writeCircularBuffer+0+0),c,w
  6636  000D94  240C               	addwf	(??i2_writeCircularBuffer+2+0),c,w
  6637  000D96  6ED9               	movwf	c:fsr2l
  6638  000D98  500B               	movf	(??i2_writeCircularBuffer+0+1),c,w
  6639  000D9A  200D               	addwfc	(??i2_writeCircularBuffer+2+1),c,w
  6640  000D9C  6EDA               	movwf	1+c:fsr2l
  6641  000D9E  C007  FFDF         	movff	(c:i2writeCircularBuffer@data),indf2
  6642                           opt subtitle "HI-TECH Software Omniscient Code Generator (Lite mode) build 49521"
  6643                           
  6644                           opt pagewidth 120
  6645  000DA2  EE20 F004          	lfsr	2,04h
  6646  000DA6  5005               	movf	((c:i2writeCircularBuffer@buf)),c,w
  6647  000DA8  26D9               	addwf	fsr2l
  6648  000DAA  5006               	movf	((c:i2writeCircularBuffer@buf+1)),c,w
  6649  000DAC  22DA               	addwfc	fsr2h
  6650  000DAE  2ADE               	incf	postinc2
  6651  000DB0  0E00               	movlw	0
  6652  000DB2  22DD               	addwfc	postdec2
  6653                           opt subtitle "HI-TECH Software Omniscient Code Generator (Lite mode) build 49521"
  6654                           
  6655  000DB4                     i2l2122:
  6656                           opt subtitle "HI-TECH Software Omniscient Code Generator (Lite mode) build 49521"
  6657  000DB4  EE20 F002          	lfsr	2,02h
  6658  000DB8  5005               	movf	((c:i2writeCircularBuffer@buf)),c,w
  6659  000DBA  26D9               	addwf	fsr2l
  6660  000DBC  5006               	movf	((c:i2writeCircularBuffer@buf+1)),c,w
  6661  000DBE  22DA               	addwfc	fsr2h
  6662  000DC0  EE10 F004          	lfsr	1,04h
  6663  000DC4  5005               	movf	((c:i2writeCircularBuffer@buf)),c,w
  6664  000DC6  26E1               	addwf	fsr1l
  6665  000DC8  5006               	movf	((c:i2writeCircularBuffer@buf+1)),c,w
  6666  000DCA  22E2               	addwfc	fsr1h
  6667  000DCC  52E6               	movf	postinc1
  6668  000DCE  52DE               	movf	postinc2
  6669  000DD0  50DD               	movf	postdec2,w
  6670  000DD2  5CE5               	subwf	postdec1,w
  6671  000DD4  E102               	bnz	i2u196_45
  6672  000DD6  50DF               	movf	indf2,w
  6673  000DD8  5CE7               	subwf	indf1,w
  6674  000DDA                     i2u196_45:
  6675                           opt subtitle "HI-TECH Software Omniscient Code Generator (Lite mode) build 49521"
  6676  000DDA  A0D8               	btfss	status,0
  6677  000DDC  D001               	goto	i2u196_41
  6678  000DDE  D001               	goto	i2u196_40
  6679  000DE0                     i2u196_41:
  6680  000DE0  D00B               	goto	i2l2126
  6681  000DE2                     i2u196_40:
  6682                           opt subtitle "HI-TECH Software Omniscient Code Generator (Lite mode) build 49521"
  6683                           
  6684  000DE2                     i2l2124:
  6685                           opt subtitle "HI-TECH Software Omniscient Code Generator (Lite mode) build 49521"
  6686                           
  6687  000DE2  EE20 F004          	lfsr	2,04h
  6688  000DE6  5005               	movf	((c:i2writeCircularBuffer@buf)),c,w
  6689  000DE8  26D9               	addwf	fsr2l
  6690  000DEA  5006               	movf	((c:i2writeCircularBuffer@buf+1)),c,w
  6691  000DEC  22DA               	addwfc	fsr2h
  6692  000DEE  0E00               	movlw	low(0)
  6693  000DF0  6EDE               	movwf	postinc2
  6694  000DF2  0E00               	movlw	high(0)
  6695  000DF4  6EDD               	movwf	postdec2
  6696  000DF6  D000               	goto	i2l2126
  6697                           opt subtitle "HI-TECH Software Omniscient Code Generator (Lite mode) build 49521"
  6698                           
  6699  000DF8                     i2l274:
  6700                           opt subtitle "HI-TECH Software Omniscient Code Generator (Lite mode) build 49521"
  6701                           
  6702  000DF8                     i2l2126:
  6703                           opt subtitle "HI-TECH Software Omniscient Code Generator (Lite mode) build 49521"
  6704                           
  6705  000DF8  C008  FFD9         	movff	(c:i2writeCircularBuffer@error),fsr2l
  6706  000DFC  C009  FFDA         	movff	(c:i2writeCircularBuffer@error+1),fsr2h
  6707  000E00  0E00               	movlw	low(0)
  6708  000E02  6EDF               	movwf	indf2
  6709                           opt subtitle "HI-TECH Software Omniscient Code Generator (Lite mode) build 49521"
  6710                           
  6711  000E04                     i2l273:
  6712  000E04  0012               	return
  6713                           opt subtitle "HI-TECH Software Omniscient Code Generator (Lite mode) build 49521"
  6714                           
  6715  000E06                     	__end_ofi2_writeCircularBuffer:
  6716                           opt subtitle "HI-TECH Software Omniscient Code Generator (Lite mode) build 49521"
  6717                           
  6718                           opt pagewidth 120
  6719                           
  6720                           	opt lm
  6721                           
  6722                           	processor	18LF14K22
  6723                           porta	equ	0F80h
  6724                           portb	equ	0F81h
  6725                           portc	equ	0F82h
  6726                           portd	equ	0F83h
  6727                           porte	equ	0F84h
  6728                           lata	equ	0F89h
  6729                           latb	equ	0F8Ah
  6730                           latc	equ	0F8Bh
  6731                           latd	equ	0F8Ch
  6732                           late	equ	0F8Dh
  6733                           trisa	equ	0F92h
  6734                           trisb	equ	0F93h
  6735                           trisc	equ	0F94h
  6736                           trisd	equ	0F95h
  6737                           trise	equ	0F96h
  6738                           pie1	equ	0F9Dh
  6739                           pir1	equ	0F9Eh
  6740                           ipr1	equ	0F9Fh
  6741                           pie2	equ	0FA0h
  6742                           pir2	equ	0FA1h
  6743                           ipr2	equ	0FA2h
  6744                           t3con	equ	0FB1h
  6745                           tmr3l	equ	0FB2h
  6746                           tmr3h	equ	0FB3h
  6747                           ccp1con	equ	0FBDh
  6748                           ccpr1l	equ	0FBEh
  6749                           ccpr1h	equ	0FBFh
  6750                           adcon1	equ	0FC1h
  6751  0010C2                     __ptext19:
  6752                           opt subtitle "HI-TECH Software Omniscient Code Generator (Lite mode) build 49521"
  6753                           
  6754                           opt pagewidth 120
  6755                           
  6756  0000                     	__size_ofi2_circularBufferFull	equ	__end_ofi2_circularBufferFull-i2_circularBufferFull
  6757                           opt subtitle "HI-TECH Software Omniscient Code Generator (Lite mode) build 49521"
  6758  0010C2                     i2_circularBufferFull:
  6759                           opt subtitle "HI-TECH Software Omniscient Code Generator (Lite mode) build 49521"
  6760                           
  6761                           opt pagewidth 120
  6762  0010C2                     i2l2104:
  6763                           opt subtitle "HI-TECH Software Omniscient Code Generator (Lite mode) build 49521"
  6764  0010C2  EE20 F004          	lfsr	2,04h
  6765  0010C6  5001               	movf	((c:i2circularBufferFull@buf)),c,w
  6766  0010C8  26D9               	addwf	fsr2l
  6767  0010CA  5002               	movf	((c:i2circularBufferFull@buf+1)),c,w
  6768  0010CC  22DA               	addwfc	fsr2h
  6769  0010CE  CFDE F003          	movff	postinc2,(c:i2circularBufferFull@headTemp)
  6770  0010D2  CFDD F004          	movff	postdec2,(c:i2circularBufferFull@headTemp+1)
  6771                           opt subtitle "HI-TECH Software Omniscient Code Generator (Lite mode) build 49521"
  6772                           
  6773  0010D6                     i2l2106:
  6774                           opt subtitle "HI-TECH Software Omniscient Code Generator (Lite mode) build 49521"
  6775  0010D6  EE20 F002          	lfsr	2,02h
  6776  0010DA  5001               	movf	((c:i2circularBufferFull@buf)),c,w
  6777  0010DC  26D9               	addwf	fsr2l
  6778  0010DE  5002               	movf	((c:i2circularBufferFull@buf+1)),c,w
  6779  0010E0  22DA               	addwfc	fsr2h
  6780  0010E2  EE10  F003         	lfsr	1,(c:i2circularBufferFull@headTemp)
  6781  0010E6  2AE6               	incf	postinc1
  6782  0010E8  0E00               	movlw	0
  6783  0010EA  22E5               	addwfc	postdec1
  6784  0010EC  52E6               	movf	postinc1
  6785  0010EE  52DE               	movf	postinc2
  6786  0010F0  50DD               	movf	postdec2,w
  6787  0010F2  5CE5               	subwf	postdec1,w
  6788  0010F4  E102               	bnz	i2u193_45
  6789  0010F6  50DF               	movf	indf2,w
  6790  0010F8  5CE7               	subwf	indf1,w
  6791  0010FA                     i2u193_45:
  6792                           opt subtitle "HI-TECH Software Omniscient Code Generator (Lite mode) build 49521"
  6793  0010FA  A0D8               	btfss	status,0
  6794  0010FC  D001               	goto	i2u193_41
  6795  0010FE  D001               	goto	i2u193_40
  6796  001100                     i2u193_41:
  6797  001100  D005               	goto	i2l2110
  6798  001102                     i2u193_40:
  6799                           opt subtitle "HI-TECH Software Omniscient Code Generator (Lite mode) build 49521"
  6800                           
  6801  001102                     i2l2108:
  6802                           opt subtitle "HI-TECH Software Omniscient Code Generator (Lite mode) build 49521"
  6803                           
  6804  001102  0E00               	movlw	high(0)
  6805  001104  6E04               	movwf	((c:i2circularBufferFull@headTemp+1)),c
  6806  001106  0E00               	movlw	low(0)
  6807  001108  6E03               	movwf	((c:i2circularBufferFull@headTemp)),c
  6808  00110A  D000               	goto	i2l2110
  6809                           opt subtitle "HI-TECH Software Omniscient Code Generator (Lite mode) build 49521"
  6810                           
  6811  00110C                     i2l277:
  6812                           opt subtitle "HI-TECH Software Omniscient Code Generator (Lite mode) build 49521"
  6813                           
  6814  00110C                     i2l2110:
  6815                           opt subtitle "HI-TECH Software Omniscient Code Generator (Lite mode) build 49521"
  6816                           
  6817  00110C  EE20 F006          	lfsr	2,06h
  6818  001110  5001               	movf	((c:i2circularBufferFull@buf)),c,w
  6819  001112  26D9               	addwf	fsr2l
  6820  001114  5002               	movf	((c:i2circularBufferFull@buf+1)),c,w
  6821  001116  22DA               	addwfc	fsr2h
  6822  001118  52DE               	movf	postinc2
  6823  00111A  5004               	movf	((c:i2circularBufferFull@headTemp+1)),c,w
  6824  00111C  18DD               	xorwf	postdec2,w
  6825  00111E  C003  FFE8         	movff	(c:i2circularBufferFull@headTemp),wreg
  6826  001122  B4D8               	btfsc	status,2
  6827  001124  18DF               	xorwf	indf2,w
  6828                           opt subtitle "HI-TECH Software Omniscient Code Generator (Lite mode) build 49521"
  6829  001126  B4D8               	btfsc	status,2
  6830  001128  D001               	goto	i2u194_41
  6831  00112A  D002               	goto	i2u194_40
  6832  00112C                     i2u194_41:
  6833  00112C  0E01               	movlw	1
  6834  00112E  D001               	goto	i2u194_46
  6835  001130                     i2u194_40:
  6836  001130  0E00               	movlw	0
  6837  001132                     i2u194_46:
  6838  001132  D000               	goto	i2l278
  6839                           opt subtitle "HI-TECH Software Omniscient Code Generator (Lite mode) build 49521"
  6840  001134                     i2l2112:
  6841                           opt subtitle "HI-TECH Software Omniscient Code Generator (Lite mode) build 49521"
  6842                           
  6843  001134                     i2l278:
  6844  001134  0012               	return
  6845                           opt subtitle "HI-TECH Software Omniscient Code Generator (Lite mode) build 49521"
  6846                           
  6847  001136                     	__end_ofi2_circularBufferFull:
  6848                           opt subtitle "HI-TECH Software Omniscient Code Generator (Lite mode) build 49521"
  6849                           
  6850  000252  00                 	db 0	; dummy byte at the end
  6851                           opt subtitle "HI-TECH Software Omniscient Code Generator (Lite mode) build 49521"
  6852                           
  6853                           opt pagewidth 120
  6854  0000                     __activetblptr	EQU	2
  6855                           opt subtitle "HI-TECH Software Omniscient Code Generator (Lite mode) build 49521"
  6856                           
  6857                           opt pagewidth 120
  6858                           
  6859                           	opt lm
  6860                           
  6861  0000                     __Lparam	EQU	__Lrparam
  6862  0000                     __Hparam	EQU	__Hrparam


Data Sizes:
    Strings     18
    Constant    16
    Data        36
    BSS         117
    Persistent  0
    Stack       0

Auto Spaces:
    Space          Size  Autos    Used
    COMRAM           95     32      67
    BANK0           160     39     157
    BANK1           256      0       0

Pointer List with Targets:

    ?___wmul	unsigned int  size(2) Largest target is 0

    ?_asciiDigitToInt	int  size(2) Largest target is 0

    circularBufferEmpty@buf.base	PTR unsigned char  size(2) Largest target is 32
		 -> receiveData(BANK0[32]), transmitData(BANK0[32]), 

    circularBufferEmpty@buf	PTR struct . size(2) Largest target is 9
		 -> receiveBuffer(BANK0[8]), transmitBuffer(COMRAM[8]), 

    circularBufferFull@buf.base	PTR unsigned char  size(2) Largest target is 32
		 -> receiveData(BANK0[32]), transmitData(BANK0[32]), 

    circularBufferFull@buf	PTR struct . size(2) Largest target is 9
		 -> receiveBuffer(BANK0[8]), transmitBuffer(COMRAM[8]), 

    writeCircularBuffer@buf.base	PTR unsigned char  size(2) Largest target is 32
		 -> receiveData(BANK0[32]), transmitData(BANK0[32]), 

    writeCircularBuffer@error	PTR enum E35 size(2) Largest target is 1
		 -> UARTISR@e_809(COMRAM[1]), writeUARTMessage@e(BANK0[1]), writeUART@e(BANK0[1]), 

    writeCircularBuffer@buf	PTR struct . size(2) Largest target is 9
		 -> receiveBuffer(BANK0[8]), transmitBuffer(COMRAM[8]), 

    readCircularBuffer@buf.base	PTR unsigned char  size(2) Largest target is 32
		 -> receiveData(BANK0[32]), transmitData(BANK0[32]), 

    readCircularBuffer@error	PTR enum E35 size(2) Largest target is 1
		 -> UARTISR@e(COMRAM[1]), readUART@e(COMRAM[1]), 

    readCircularBuffer@buf	PTR struct . size(2) Largest target is 9
		 -> receiveBuffer(BANK0[8]), transmitBuffer(COMRAM[8]), 

    motor_pins.address	PTR volatile unsigned char  size(2) Largest target is 1
		 -> LATC(DATA[1]), 

    initStepperMotor@motor_pins_in	PTR struct . size(2) Largest target is 16
		 -> main@motor_pins(CODE[12]), 

    readUART@error	PTR unsigned char  size(2) Largest target is 1
		 -> isr@e(COMRAM[1]), 

    writeUARTMessage@error	PTR unsigned char  size(2) Largest target is 1
		 -> main@UARTErrorCode(BANK0[1]), main@e(BANK0[1]), 

    writeUARTMessage@msg	PTR const unsigned char  size(2) Largest target is 10
		 -> STR_3(CODE[2]), STR_2(CODE[10]), STR_1(CODE[8]), keyName(BANK0[6]), 

    writeUARTMessage@i	PTR unsigned char  size(2) Largest target is 10
		 -> STR_3(CODE[2]), STR_2(CODE[10]), STR_1(CODE[8]), keyName(BANK0[6]), 

    writeUART@error	PTR unsigned char  size(2) Largest target is 1
		 -> main@e(BANK0[1]), 

    receiveBuffer.base	PTR unsigned char  size(2) Largest target is 32
		 -> receiveData(BANK0[32]), transmitData(BANK0[32]), 

    S407$base	PTR unsigned char  size(2) Largest target is 32
		 -> receiveData(BANK0[32]), transmitData(BANK0[32]), 

    transmitBuffer.base	PTR unsigned char  size(2) Largest target is 32
		 -> receiveData(BANK0[32]), transmitData(BANK0[32]), 

    S132$address	PTR volatile unsigned char  size(2) Largest target is 1
		 -> LATC(DATA[1]), 

    motor_pins.address	PTR volatile unsigned char  size(2) Largest target is 1
		 -> LATC(DATA[1]), 


Critical Paths under _main in COMRAM

    None.

Critical Paths under _isr in COMRAM

    _isr->_UARTISR
    _isr->_readUART
    _readUART->_readCircularBuffer
    _UARTISR->i2_writeCircularBuffer
    _readCircularBuffer->_circularBufferEmpty
    i2_writeCircularBuffer->i2_circularBufferFull

Critical Paths under _main in BANK0

    _main->_writeUARTMessage
    _writeUART->_writeCircularBuffer
    _writeUARTMessage->_writeCircularBuffer
    _writeCircularBuffer->_circularBufferFull

Critical Paths under _isr in BANK0

    None.

Critical Paths under _main in BANK1

    None.

Critical Paths under _isr in BANK1

    None.

Call Graph Tables:

 ---------------------------------------------------------------------------------
 (Depth) Function   	        Calls       Base Space   Used Autos Params    Refs
 ---------------------------------------------------------------------------------
 (0) _main                                                19    19      0    2346
                                             20 BANK0     19    19      0
                           _initUART
                   _initStepperMotor
                   _writeUARTMessage
                          _writeUART
                             ___wmul
                  _startStepperMotor
               _stepperMotorFinished
              _release_stepper_motor
 ---------------------------------------------------------------------------------
 (1) _initUART                                             0     0      0       0
 ---------------------------------------------------------------------------------
 (1) _initStepperMotor                                     7     5      2     124
                                              0 BANK0      7     5      2
 ---------------------------------------------------------------------------------
 (1) _writeUART                                            4     1      3     627
                                             13 BANK0      4     1      3
                _writeCircularBuffer
 ---------------------------------------------------------------------------------
 (1) _writeUARTMessage                                     7     3      4     856
                                             13 BANK0      7     3      4
                 _circularBufferFull
                _writeCircularBuffer
 ---------------------------------------------------------------------------------
 (1) _startStepperMotor                                    5     0      5     124
                                              0 BANK0      5     0      5
 ---------------------------------------------------------------------------------
 (1) _stepperMotorFinished                                 0     0      0       0
 ---------------------------------------------------------------------------------
 (1) _release_stepper_motor                                2     2      0       0
                                              0 BANK0      2     2      0
 ---------------------------------------------------------------------------------
 (2) _writeCircularBuffer                                  9     4      5     471
                                              4 BANK0      9     4      5
                 _circularBufferFull
 ---------------------------------------------------------------------------------
 (3) _circularBufferFull                                   4     2      2     161
                                              0 BANK0      4     2      2
 ---------------------------------------------------------------------------------
 (1) ___wmul                                               6     2      4     136
                                              0 BANK0      6     2      4
 ---------------------------------------------------------------------------------
 Estimated maximum stack depth 3
 ---------------------------------------------------------------------------------
 (Depth) Function   	        Calls       Base Space   Used Autos Params    Refs
 ---------------------------------------------------------------------------------
 (4) _isr                                                 17    17      0    3036
                                             15 COMRAM    17    17      0
                            _UARTISR
                         _STEPPERISR
                           _readUART
                    _asciiDigitToInt
 ---------------------------------------------------------------------------------
 (5) _STEPPERISR                                           3     3      0       0
                                              0 COMRAM     3     3      0
 ---------------------------------------------------------------------------------
 (5) _readUART                                             4     2      2     380
                                             11 COMRAM     4     2      2
                 _readCircularBuffer
 ---------------------------------------------------------------------------------
 (5) _UARTISR                                              2     2      0    2195
                                             13 COMRAM     2     2      0
                _circularBufferEmpty
                 _readCircularBuffer
               i2_circularBufferFull
              i2_writeCircularBuffer
 ---------------------------------------------------------------------------------
 (5) _asciiDigitToInt                                      2     0      2     198
                                              0 COMRAM     2     0      2
 ---------------------------------------------------------------------------------
 (6) _readCircularBuffer                                   9     5      4     265
                                              2 COMRAM     9     5      4
                _circularBufferEmpty
 ---------------------------------------------------------------------------------
 (7) _circularBufferEmpty                                  2     0      2      44
                                              0 COMRAM     2     0      2
 ---------------------------------------------------------------------------------
 (6) i2_writeCircularBuffer                                9     4      5    1330
                                              4 COMRAM     9     4      5
               i2_circularBufferFull
 ---------------------------------------------------------------------------------
 (7) i2_circularBufferFull                                 4     2      2     450
                                              0 COMRAM     4     2      2
 ---------------------------------------------------------------------------------
 Estimated maximum stack depth 7
 ---------------------------------------------------------------------------------

 Call Graph Graphs:

 _main (ROOT)
   _initUART
   _initStepperMotor
   _writeUARTMessage
     _circularBufferFull
     _writeCircularBuffer
       _circularBufferFull
   _writeUART
     _writeCircularBuffer
       _circularBufferFull
   ___wmul
   _startStepperMotor
   _stepperMotorFinished
   _release_stepper_motor

 _isr (ROOT)
   _UARTISR
     _circularBufferEmpty
     _readCircularBuffer
       _circularBufferEmpty
     i2_circularBufferFull
     i2_writeCircularBuffer
       i2_circularBufferFull
   _STEPPERISR
   _readUART
     _readCircularBuffer
       _circularBufferEmpty
   _asciiDigitToInt

 Address spaces:
Name               Size   Autos  Total    Cost      Usage
BIGRAM             1FF      0       0       8        0.0%
EEDATA             100      0       0       0        0.0%
BITBANK1           100      0       0       5        0.0%
BANK1              100      0       0       6        0.0%
BITBANK0            A0      0       0       3        0.0%
BANK0               A0     27      9D       4       98.1%
BITCOMRAM           5F      0       0       0        0.0%
COMRAM              5F     20      43       1       70.5%
BITSFR               0      0       0      40        0.0%
SFR                  0      0       0      40        0.0%
STACK                0      0       B       2        0.0%
NULL                 0      0       0       0        0.0%
ABS                  0      0      E0       7        0.0%
DATA                 0      0      EB       9        0.0%
CODE                 0      0       0       0        0.0%


Microchip Technology PIC18 Macro Assembler V1.12 build 49521 
Symbol Table                                                                                   Tue Jan 28 02:11:24 2014

           ___wmul@multiplicand 00BC                    __CFG_CP0$OFF 000000                    __CFG_CP1$OFF 000000  
     __size_of_initStepperMotor 00FC                             l110 038C                             l111 04AA  
                           l120 05A8                             l112 03C6                             l121 05AA  
                           l113 0476                             l122 066E                             l114 0454  
                           l106 033A                             l107 06A0                             l123 0670  
                           l115 0488                             l220 107A                             l124 069C  
                           l116 04FC                             l108 033C                             l221 1082  
                           l125 06C2                             l109 0576                             l117 04FE  
                           l230 131A                             l222 10BE                             l126 06C4  
                           l118 06C0                             l223 10A8                             l127 06C4  
                           l119 0578                             l224 109E                             l233 0EAE  
                           l225 10B8                             l217 0AC2                             l226 10A2  
                           l170 124A                             l227 10C0                             l180 0C82  
                           l173 0C52                             l174 0BB6                             l166 12EA  
                           l175 0BBA                             l272 0AEC                             l176 0BB8  
                           l273 0BAA                             l177 0BDA                             l169 1248  
                           l274 0B9E                             l178 0C46                             l179 0C82  
                           l277 0F12                             l278 0F46                             l780 1194  
                           l781 119C                             l778 1146                             l779 116C  
                  __CFG_CPB$OFF 000000                    __CFG_CPD$OFF 000000      __end_of_readCircularBuffer 0D48  
                           _isr 0008                             _num 0060                    __CFG_BORV$19 000000  
__size_ofi2_writeCircularBuffer 00BE                             prod 000FF3                             wreg 000FE8  
 __end_ofi2_writeCircularBuffer 0E06                    __CFG_LVP$OFF 000000                            l2000 12E8  
                          l2010 09DE                            l2002 09C8                            l2100 116C  
                          l2020 0BBA                            l2012 0A08                            l2004 09CA  
                          l2102 1178                            l2030 0C48                            l2022 0BDA  
                          l2014 0A46                            l2006 09CE                            l2024 0C2A  
                          l2032 0C52                            l2040 1246                            l2016 0A84  
                          l2008 09D0                            l2050 109C                            l2042 104E  
                          l2026 0C38                            l2018 0BAC                            l2034 1200  
                          l2060 10B8                            l2052 109E                            l2044 105A  
                          l2028 0C46                            l2036 122A                            l2070 0AC4  
                          l2054 10A2                            l2062 10BE                            l2046 1070  
                          l2038 1238                            l2080 0B82                            l2072 0ADC  
                          l2064 1308                            l2056 10A6                            l2048 108E  
                          l2090 0F12                            l2082 0B9E                            l2074 0AEA  
                          l2066 131A                            l2058 10A8                            l2092 0F46  
                          l2084 0EB0                            l2076 0AEC                            l2068 0E06  
                          l2094 1136                            l2086 0ECE                            l2078 0B48  
                          l2096 1146                            l2088 0F02                            l2098 1152  
                          l1900 02FA                            l1910 033C                            l1902 02FC  
                          l1920 038A                            l1912 034A                            l1904 02FE  
                          l1930 03C6                            l1922 038C                            l1914 0352  
                          l1906 030E                            l1940 0486                            l1932 0442  
                          l1924 039C                            l1916 0362                            l1908 031E  
                          l1950 04EA                            l1942 0488                            l1934 0454  
                          l1926 03AA                            l1918 0370                            l1870 025C  
                          l1960 05AA                            l1952 04FE                            l1944 0490  
                          l1936 045C                            l1928 03C4                            l1880 029E  
                          l1872 0268                            l1970 068E                            l1962 062A  
                          l1954 0578                            l1938 0476                            l1946 04AA  
                          l1890 02B2                            l1882 02A0                            l1874 0276  
                          l1980 12D2                            l1972 0696                            l1964 065C  
                          l1956 0586                            l1948 04B8                            l1892 02B4  
                          l1884 02A2                            l1876 0286                            l1868 0254  
                          l1990 12DE                            l1982 12D6                            l1974 069E  
                          l1966 0670                            l1958 0596                            l1894 02B6  
                          l1886 02A8                            l1878 028A                            l1992 12E0  
                          l1984 12D8                            l1968 067E                            l1976 06A0  
                          l1896 02DC                            l1888 02AA                            l1994 12E2  
                          l1986 12DA                            l1978 12CC                            l1898 02F8  
                          l1996 12E4                            l1988 12DC                            l1998 12E6  
                  _transmitData 0094                            ?_isr 0001                            STR_1 024A  
                          STR_2 0240                            STR_3 0250                     main@keyGood 00DA  
                          _LATC 000F8B                            u1700 04B8                            u1701 04B6  
                          u1710 0586                            u1630 034A                            u1711 0584  
                          u1631 0348                            u1800 1070                            u1720 062A  
                          u1640 0388                            u1801 106E                            u1721 0628  
                          u1641 0386                            u1810 109A                            u1730 067E  
                          u1650 03C2                            u1811 1098                            u1731 067C  
                          u1651 03C0                            u1900 0F42                            u1820 1316  
                          u1740 0BD8                            u1660 0442                            u1901 0F3E  
                          u1821 1312                            u1741 0BD6                            u1661 0440  
                          u1910 1152                            u1750 0C0C                            u1670 0474  
                          u1911 1150                            u1671 0472                            u1920 1194  
                          u1760 0C38                            u1680 0484                            u1921 1192  
                          u1761 0C36                            u1681 0482                            u1906 0F44  
                          u1834 0E1C                            u1826 1318                            u1770 0C76  
                          u1690 04A8                            u1835 0E16                            u1691 04A6  
                          u1844 0E46                            u1780 0C80                            u1845 0E40  
                          u1781 0C7E                            u1757 0C06                            u1870 0ADC  
                          u1854 0E70                            u1790 1238                            u1871 0ADA  
                          u1855 0E6A                            u1791 1236                            u1880 0B82  
                          u1864 0E9A                            u1881 0B80                            u1865 0E94  
                          u1777 0C70                            u1890 0F02                            u1891 0F00  
                          u1885 0B7A                            u1895 0EFA                            i2l61 0FFA  
                          i2l62 104C                            i2l63 101E                            i2l64 1042  
                          i2l90 0122                            i2l83 01F2                            i2l91 0118  
                          i2l67 0078                            i2l84 01D4                            i2l92 011E  
                          i2l68 01F2                            i2l93 0138                            i2l85 009A  
                          i2l94 015E                            i2l86 00B2                            i2l95 0160  
                          i2l87 00CC                            i2l88 01F0                            i2l96 0176  
                          _RCON 000FD0                            i2l97 018A                            i2l89 00CE  
                          i2l98 01AA                            i2l99 01AC                            _TMR0 000FD6  
                          _TMR1 000FCE                 __end_of_UARTISR 0FD6                ?_asciiDigitToInt 0001  
                          _main 0254                            fsr0h 000FEA                            fsr1h 000FE2  
                          indf0 000FEF                            fsr0l 000FE9                            fsr2h 000FDA  
                          indf1 000FE7                            fsr1l 000FE1                            indf2 000FDF  
                          fsr2l 000FD9                            isr@e 001F                            pclat 000FFA  
                          prodh 000FF4                            prodl 000FF3                            start 022C  
                 __CFG_IESO$OFF 000000                   __CFG_FOSC$IRC 000000      __end_of_circularBufferFull 0F48  
                 __CFG_MCLRE$ON 000000         i2circularBufferFull@buf 0001                           ??_isr 0010  
                         ?_main 0001                           _ANSEL 000F7E                           i2l100 01B0  
                         i2l101 01D0                           i2l240 0772                           i2l241 078E  
                         i2l250 08D2                           i2l242 0776                           i2l243 09AE  
                         i2l251 08C8                           i2l236 09C6                           i2l252 08E2  
                         i2l244 0790                           i2l260 09C6                           i2l237 0992  
                         i2l253 08CC                           i2l245 0828                           i2l190 0FD4  
                         i2l254 08E4                           i2l246 081E                           i2l238 06E4  
                         i2l191 0FD2                           i2l183 1282                           i2l255 097E  
                         i2l247 0838                           i2l239 077E                           i2l272 0D6E  
                         i2l192 0FD4                           i2l184 1292                           i2l256 0972  
                         i2l248 0822                           i2l273 0E04                           i2l281 12CA  
                         i2l257 098E                           i2l249 083A                           i2l274 0DF8  
                         i2l258 0978                           i2l267 0CAC                           i2l187 0F8A  
                         i2l259 09C4                           i2l268 0D46                           i2l188 0F86  
                         i2l277 110C                           i2l269 0D36                           i2l189 0F8A  
                         i2l278 1134                           _RCREG 000FAE                  __CFG_BBSIZ$OFF 000000  
                         _SPBRG 000FAF                           _TRISC 000F94                           _TXREG 000FAD  
                 __CFG_WRT0$OFF 000000                   __CFG_WRT1$OFF 000000                  __CFG_EBTR0$OFF 000000  
                __CFG_FCMEN$OFF 000000                  __CFG_EBTR1$OFF 000000                   __CFG_WRTB$OFF 000000  
                 __CFG_WRTC$OFF 000000                   __CFG_WRTD$OFF 000000                  __CFG_EBTRB$OFF 000000  
                         _speed 002D                           main@e 00DB                           main@i 00DC  
                         main@j 00DF                     ?_STEPPERISR 0001                           tablat 000FF5  
                         status 000FD8     __end_of_circularBufferEmpty 12CC                 __initialization 119E  
                  __end_of_main 06C8               writeUARTMessage@e 00CD               writeUARTMessage@i 00CB  
                   readUART@ret 000E                          ??_main 00CE                   __activetblptr 000002  
                __CFG_PLLEN$OFF 000000               isr@calcd_checksum 0035                     isr@checksum 0036  
                     ??_UARTISR 000E                  _transmitBuffer 003C                          _ANSELH 000F7F  
                        i2l2110 110C                          i2l2112 1134                          i2l2104 10C2  
                        i2l2120 0D6E                          i2l1400 101C                          i2l2200 0176  
                        i2l2106 10D6                          i2l2122 0DB4                          i2l2114 0D48  
                        i2l1410 1042                          i2l1402 101E                          i2l2130 0F50  
                        i2l2210 01AE                          i2l2202 017C                          i2l2108 1102  
                        i2l2124 0DE2                          i2l2116 0D5E                          i2l1412 104C  
                        i2l1404 1028                          i2l2140 0FB4                          i2l2132 0F58  
                        i2l1420 06E4                          i2l2220 01D2                          i2l2212 01B0  
                        i2l2204 018A                          i2l2126 0DF8                          i2l2118 0D6C  
                        i2l1406 1032                          i2l2134 0F6E                          i2l1430 0790  
                        i2l1422 0772                          i2l1414 06C8                          i2l2214 01B2  
                        i2l2206 018C                          i2l2222 01D4                          i2l2150 005A  
                        i2l2142 0040                          i2l1408 1040                          i2l2136 0F92  
                        i2l2128 0F48                          i2l1440 083A                          i2l1432 081E  
                        i2l1424 0776                          i2l1416 06D0                          i2l2216 01BE  
                        i2l2208 0198                          i2l2160 008E                          i2l2152 0076  
                        i2l2144 0048                          i2l2138 0F9A                          i2l1450 08E4  
                        i2l1442 08C8                          i2l1434 0822                          i2l1426 077C  
                        i2l1418 06D8                          i2l2218 01C6                          i2l2170 00B2  
                        i2l2162 0098                          i2l2146 0050                          i2l2154 0078  
                        i2l1460 0990                          i2l1452 0972                          i2l1444 08CC  
                        i2l1436 0826                          i2l1428 077E                          i2l2180 00F2  
                        i2l2172 00CE                          i2l2164 009A                          i2l2156 007C  
                        i2l2148 0052                          i2l1390 0FEA                          i2l1454 0978  
                        i2l1446 08D0                          i2l1438 0828                          i2l1462 0992  
                        i2l2182 010A                          i2l2174 00D8                          i2l2190 0122  
                        i2l2166 00A2                          i2l2158 0080                          i2l1720 0C84  
                        i2l1392 0FF8                          i2l1456 097C                          i2l1448 08D2  
                        i2l1464 09AE                          i2l2192 012E                          i2l2184 0112  
                        i2l2176 00DE                          i2l2168 00B0                          i2l1730 0CF2  
                        i2l1722 0C9A                          i2l1394 0FFA                          i2l1386 0FD6  
                        i2l1466 09B4                          i2l1458 097E                          i2l2194 0138  
                        i2l2186 0118                          i2l2178 00EA                          i2l1732 0D20  
                        i2l1724 0CA6                          i2l1396 1004                          i2l1388 0FE0  
                        i2l1468 09C0                          i2l2196 0144                          i2l2188 011E  
                        i2l1734 0D36                          i2l1726 0CAA                          i2l1398 100E  
                        i2l2198 0168                  __CFG_WDTEN$OFF 000000                          i2l1736 0D42  
                        i2l1728 0CAC                          i2l1738 0D46                          i2l1770 1266  
                        i2l1780 128E                          i2l1772 1270                          i2l1782 1292  
                        i2l1774 127C                          i2l1696 1294                          i2l1776 1280  
                        i2l1768 124C                          i2l1698 12CA                          i2l1778 1282  
                __CFG_XINST$OFF 000000                          ___wmul 1136                  __CFG_STVREN$ON 000000  
              __end_of_initUART 12EC                __end_of_readUART 1294           readCircularBuffer@buf 0003  
                        clear_0 11A4                          clear_1 11B0             __size_of_STEPPERISR 0300  
              _initStepperMotor 09C8                    __pdataCOMRAM 003C                    __mediumconst 0000  
                        tblptrh 000FF7                          tblptrl 000FF6                          tblptru 000FF8  
               __CFG_HFOFST$OFF 000000  __size_of_release_stepper_motor 00AA       startStepperMotor@distance 00BA  
 __end_of_release_stepper_motor 0EB0                      __accesstop 0060         __end_of__initialization 11F6  
     __size_of_writeUARTMessage 00D8                  __pcstackCOMRAM 0001                    __pidataBANK0 12EC  
               __CFG_PCLKEN$OFF 000000       i2writeCircularBuffer@data 0007    __end_of_stepperMotorFinished 131C  
 __size_ofi2_circularBufferFull 0074                      __pbssBANK0 0060              _readCircularBuffer 0C84  
         writeUARTMessage@error 00C9             ?_readCircularBuffer 0003                         ?___wmul 00BA  
  __size_of_writeCircularBuffer 00E8                asciiDigitToInt@c 0001              _circularBufferFull 0EB0  
          ??_readCircularBuffer 0007                         _UARTISR 0F48                         i2u90_40 06D0  
                       i2u90_41 06CE                         i2u91_40 06D8                         i2u91_41 06D6  
                       i2u84_40 0FE0                         i2u84_41 0FDE                         i2u92_44 06F4  
                       i2u92_45 06F0                         i2u85_40 0FEA                         i2u85_41 0FE8  
                       i2u93_44 0714                         i2u93_45 0710                         i2u86_40 1004  
                       i2u86_41 1002                         i2u94_44 073A                         i2u94_45 0736  
                       i2u87_40 100E                         i2u87_41 100C                         i2u95_44 075A  
                       i2u95_45 0756                         i2u88_40 1028                         i2u88_41 1026  
                       i2u96_44 07A0                         i2u96_45 079C                         i2u89_40 1032  
                       i2u89_41 1030                         i2u97_44 07C0                         i2u97_45 07BC  
                       i2u98_44 07E6                         i2u98_45 07E2                         i2u99_44 080C  
                       i2u99_45 0808           i2_writeCircularBuffer 0D48             ?_circularBufferFull 00BA  
                  ??_STEPPERISR 0001                    isr@read_byte 003A                  isr@field_count 0037  
                     ?_initUART 0001               _startStepperMotor 104E                       ?_readUART 000C  
 initStepperMotor@motor_pins_in 00BA              __size_of_writeUART 004C              ?_startStepperMotor 00BA  
               __CFG_PWRTEN$OFF 000000                         __Hparam 0000                         __Lparam 0000  
      __size_of_asciiDigitToInt 0078             ??_startStepperMotor 00BF            ??_circularBufferFull 00BC  
               __size_of___wmul 0068                    __psmallconst 0230                         __pcinit 119E  
             main@UARTErrorCode 00DE                         __ramtop 0200                         __ptext0 0254  
                       __ptext1 12CC                         __ptext2 09C8                         __ptext3 1200  
                       __ptext4 0BAC                         __ptext5 104E                         __ptext6 1308  
                       __ptext7 0E06                         __ptext8 0AC4                         __ptext9 0EB0  
            __end_of_STEPPERISR 09C8                       _T0CONbits 000FD5                         _keyName 00B4  
                     _T1CONbits 000FCD                    __size_of_isr 0224                   _receiveBuffer 00F5  
        readCircularBuffer@temp 000B       __end_of_startStepperMotor 10C2                         _sysTick 006E  
          end_of_initialization 11F6                  main@motor_pins 0234                      ??_initUART 00BA  
                    ??_readUART 000E                   __Lmediumconst 0000        __end_of_initStepperMotor 0AC4  
              _writeUARTMessage 0BAC            _stepperMotorFinished 1308          writeCircularBuffer@buf 00BE  
                     _RCSTAbits 000FAB                         postdec1 000FE5                         postdec2 000FDD  
                       postinc0 000FEE                         postinc1 000FE6                         postinc2 000FDE  
                    _motor_pins 0021    __size_of_circularBufferEmpty 0038               __end_of_writeUART 124C  
                     _TRISBbits 000F93          ?i2_writeCircularBuffer 0005          __end_ofmain@motor_pins 0240  
                  _doorOpenTime 006A                     _CCP1CONbits 000FBD                       _TXSTAbits 000FAC  
         ?_stepperMotorFinished 0001                    _keyNameIndex 0033                  __end_of___wmul 119E  
                   _BAUDCONbits 000FB8                   __pidataCOMRAM 131C               ??_asciiDigitToInt 0003  
                  _keyReadyFlag 0073             start_initialization 119E                     __end_of_isr 022C  
    __size_of_startStepperMotor 0074             _writeCircularBuffer 0AC4             writeUARTMessage@msg 00C7  
    i2writeCircularBuffer@error 0008    __end_ofi2_circularBufferFull 1136           _release_stepper_motor 0E06  
                    isr@readVal 0020                      isr@msb_lsb 0039                   readUART@error 000C  
          ?_writeCircularBuffer 00BE                        ??___wmul 00BE                     __pdataBANK0 00E1  
                   __pbssCOMRAM 0021                   __pcstackBANK0 00BA                        ?_UARTISR 0001  
           __end_of__stringdata 0252             __end_of_crlfetx_str 0234          ??_stepperMotorFinished 00BA  
             __size_of_initUART 0020               __size_of_readUART 0048                        UARTISR@e 000E  
         ??_writeCircularBuffer 00C3                       __pintcode 0008            startStepperMotor@dir 00BC  
                     _direction 0032    startStepperMotor@targetSpeed 00BD        __end_of_writeUARTMessage 0C84  
                   __smallconst 0230                     _allowedKeys 00E1     __size_of_readCircularBuffer 00C4  
                  UARTISR@e_809 000F          ?_release_stepper_motor 0001             _circularBufferEmpty 1294  
                ___wmul@product 00BE               ?_initStepperMotor 00BA                        _PIE1bits 000F9D  
                      i2u100_44 084A                        i2u100_45 0846                        i2u101_44 0870  
                      i2u101_45 086C                        i2u102_44 0890                        i2u102_45 088C  
                      i2u103_44 08B6                        i2u103_45 08B2                        i2u200_40 0F92  
                      i2u200_41 0F90                        i2u104_44 08F4                        i2u104_45 08F0  
                      i2u201_40 0F9A                        i2u201_41 0F98                        i2u105_44 091A  
                      i2u105_45 0916                        i2u202_40 0FB4                        i2u210_40 0168  
                      i2u202_41 0FB2                        i2u210_41 0166                        i2u106_44 093A  
                      i2u106_45 0936                        i2u211_40 0198                        i2u203_40 0048  
                      i2u211_41 0196                        i2u203_41 0046                        i2u107_44 095A  
                      i2u107_45 0956                        i2u108_40 09C0                        i2u212_40 01BE  
                      i2u204_40 0050                        i2u108_41 09BE                        i2u212_41 01BC  
                      i2u204_41 004E                        i2u205_40 0096                        i2u205_41 0094  
                      i2u142_40 0C9A                        i2u206_40 00AE                        i2u142_41 0C98  
                      i2u206_41 00AC                        i2u143_40 0D20                        i2u207_40 00D8  
                      i2u143_41 0D1E                        i2u207_41 00D6                        i2u143_45 0D18  
            ??_initStepperMotor 00BC                        i2u152_40 1270                        i2u208_40 0112  
                      i2u152_41 126E                        i2u208_41 0110                        i2u137_40 12C6  
                      i2u209_40 0144                        i2u137_41 12C2                        i2u209_41 0142  
                      i2u137_46 12C8                        i2u193_40 1102                        i2u193_41 1100  
                      _PIR1bits 000F9E                        i2u193_45 10FA                        i2u194_40 1130  
                      i2u194_41 112C                        i2u194_46 1132                        i2u195_40 0D5E  
                      i2u195_41 0D5C                        i2u196_40 0DE2                        i2u196_41 0DE0  
                      i2u196_45 0DDA                        i2u197_40 0F50                        i2u197_41 0F4E  
                      i2u198_40 0F58                        i2u198_41 0F56                        i2u199_40 0F6E  
                      i2u199_41 0F6C                        _RCONbits 000FD0                __CFG_WDTPS$32768 000000  
   __size_of_circularBufferFull 0098            ?_circularBufferEmpty 0001                     __stringdata 0240  
             ___wmul@multiplier 00BA         ??i2_writeCircularBuffer 000A                       _stepsToGo 002F  
                   _crlfetx_str 0230            i2_circularBufferFull 10C2          circularBufferEmpty@buf 0001  
                 isr@read_state 003B                  writeUART@error 00C8                       _writeUART 1200  
              __size_of_UARTISR 008E                       copy_data0 11CA                       copy_data1 11EA  
                     readUART@e 000F                        __Hrparam 0000                 _asciiDigitToInt 0FD6  
                      __Lrparam 0000              __CFG_BOREN$SBORDIS 000000           ??_circularBufferEmpty 0003  
         ?i2_circularBufferFull 0001               _previousDirection 0034                     _currentDoor 0072  
                   _currentStep 0031                      ?_writeUART 00C7                        __ptext10 1136  
                      __ptext12 06C8                        __ptext13 124C                        __ptext14 0F48  
                      __ptext15 0FD6                        __ptext16 0C84                        __ptext17 1294  
                      __ptext18 0D48                        __ptext19 10C2                        _initUART 12CC  
                      _readUART 124C        i2writeCircularBuffer@buf 0005        writeCircularBuffer@error 00C1  
                 __size_of_main 0474                     _receiveData 0074         readCircularBuffer@error 0005  
                    writeUART@e 00CA                   writeUART@data 00C7           circularBufferFull@buf 00BA  
                      main@wait 00D6                      _INTCONbits 000FF2    i2circularBufferFull@headTemp 0003  
                      intlevel2 0000         __end_of_asciiDigitToInt 104E         writeCircularBuffer@data 00C0  
                    _OSCCONbits 000FD3          ??i2_circularBufferFull 0003               ?_writeUARTMessage 00C7  
            ??_writeUARTMessage 00CB                     ??_writeUART 00CA         ??_release_stepper_motor 00BA  
    circularBufferFull@headTemp 00BC                      _STEPPERISR 06C8     __end_of_writeCircularBuffer 0BAC  
 __size_of_stepperMotorFinished 0014               isr@key_name_index 0038  
